Archive member included to satisfy reference by file (symbol)

c:/chibistudio/tools/gnu tools arm embedded/10.3 2021.07/bin/../lib/gcc/arm-none-eabi/10.3.1/../../../../arm-none-eabi/lib/thumb/v7e-m/nofp\libm.a(lib_a-s_round.o)
                              ./build/obj/digital_driver.o (symbol from plugin) (round)
c:/chibistudio/tools/gnu tools arm embedded/10.3 2021.07/bin/../lib/gcc/arm-none-eabi/10.3.1/../../../../arm-none-eabi/lib/thumb/v7e-m/nofp\libm.a(lib_a-w_exp2.o)
                              ./build/obj/digital_driver.o (symbol from plugin) (exp2)
c:/chibistudio/tools/gnu tools arm embedded/10.3 2021.07/bin/../lib/gcc/arm-none-eabi/10.3.1/../../../../arm-none-eabi/lib/thumb/v7e-m/nofp\libm.a(lib_a-w_log.o)
                              ./build/obj/digital_driver.o (symbol from plugin) (log)
c:/chibistudio/tools/gnu tools arm embedded/10.3 2021.07/bin/../lib/gcc/arm-none-eabi/10.3.1/../../../../arm-none-eabi/lib/thumb/v7e-m/nofp\libm.a(lib_a-w_pow.o)
                              c:/chibistudio/tools/gnu tools arm embedded/10.3 2021.07/bin/../lib/gcc/arm-none-eabi/10.3.1/../../../../arm-none-eabi/lib/thumb/v7e-m/nofp\libm.a(lib_a-w_exp2.o) (pow)
c:/chibistudio/tools/gnu tools arm embedded/10.3 2021.07/bin/../lib/gcc/arm-none-eabi/10.3.1/../../../../arm-none-eabi/lib/thumb/v7e-m/nofp\libm.a(lib_a-e_log.o)
                              c:/chibistudio/tools/gnu tools arm embedded/10.3 2021.07/bin/../lib/gcc/arm-none-eabi/10.3.1/../../../../arm-none-eabi/lib/thumb/v7e-m/nofp\libm.a(lib_a-w_log.o) (__ieee754_log)
c:/chibistudio/tools/gnu tools arm embedded/10.3 2021.07/bin/../lib/gcc/arm-none-eabi/10.3.1/../../../../arm-none-eabi/lib/thumb/v7e-m/nofp\libm.a(lib_a-e_pow.o)
                              c:/chibistudio/tools/gnu tools arm embedded/10.3 2021.07/bin/../lib/gcc/arm-none-eabi/10.3.1/../../../../arm-none-eabi/lib/thumb/v7e-m/nofp\libm.a(lib_a-w_pow.o) (__ieee754_pow)
c:/chibistudio/tools/gnu tools arm embedded/10.3 2021.07/bin/../lib/gcc/arm-none-eabi/10.3.1/../../../../arm-none-eabi/lib/thumb/v7e-m/nofp\libm.a(lib_a-e_sqrt.o)
                              c:/chibistudio/tools/gnu tools arm embedded/10.3 2021.07/bin/../lib/gcc/arm-none-eabi/10.3.1/../../../../arm-none-eabi/lib/thumb/v7e-m/nofp\libm.a(lib_a-e_pow.o) (__ieee754_sqrt)
c:/chibistudio/tools/gnu tools arm embedded/10.3 2021.07/bin/../lib/gcc/arm-none-eabi/10.3.1/../../../../arm-none-eabi/lib/thumb/v7e-m/nofp\libm.a(lib_a-math_err.o)
                              c:/chibistudio/tools/gnu tools arm embedded/10.3 2021.07/bin/../lib/gcc/arm-none-eabi/10.3.1/../../../../arm-none-eabi/lib/thumb/v7e-m/nofp\libm.a(lib_a-e_pow.o) (__math_uflow)
c:/chibistudio/tools/gnu tools arm embedded/10.3 2021.07/bin/../lib/gcc/arm-none-eabi/10.3.1/../../../../arm-none-eabi/lib/thumb/v7e-m/nofp\libm.a(lib_a-s_fabs.o)
                              c:/chibistudio/tools/gnu tools arm embedded/10.3 2021.07/bin/../lib/gcc/arm-none-eabi/10.3.1/../../../../arm-none-eabi/lib/thumb/v7e-m/nofp\libm.a(lib_a-e_pow.o) (fabs)
c:/chibistudio/tools/gnu tools arm embedded/10.3 2021.07/bin/../lib/gcc/arm-none-eabi/10.3.1/../../../../arm-none-eabi/lib/thumb/v7e-m/nofp\libm.a(lib_a-s_finite.o)
                              c:/chibistudio/tools/gnu tools arm embedded/10.3 2021.07/bin/../lib/gcc/arm-none-eabi/10.3.1/../../../../arm-none-eabi/lib/thumb/v7e-m/nofp\libm.a(lib_a-w_pow.o) (finite)
c:/chibistudio/tools/gnu tools arm embedded/10.3 2021.07/bin/../lib/gcc/arm-none-eabi/10.3.1/../../../../arm-none-eabi/lib/thumb/v7e-m/nofp\libm.a(lib_a-s_nan.o)
                              c:/chibistudio/tools/gnu tools arm embedded/10.3 2021.07/bin/../lib/gcc/arm-none-eabi/10.3.1/../../../../arm-none-eabi/lib/thumb/v7e-m/nofp\libm.a(lib_a-w_log.o) (nan)
c:/chibistudio/tools/gnu tools arm embedded/10.3 2021.07/bin/../lib/gcc/arm-none-eabi/10.3.1/../../../../arm-none-eabi/lib/thumb/v7e-m/nofp\libm.a(lib_a-s_scalbn.o)
                              c:/chibistudio/tools/gnu tools arm embedded/10.3 2021.07/bin/../lib/gcc/arm-none-eabi/10.3.1/../../../../arm-none-eabi/lib/thumb/v7e-m/nofp\libm.a(lib_a-e_pow.o) (scalbn)
c:/chibistudio/tools/gnu tools arm embedded/10.3 2021.07/bin/../lib/gcc/arm-none-eabi/10.3.1/thumb/v7e-m/nofp\libgcc.a(_arm_muldf3.o)
                              c:/chibistudio/tools/gnu tools arm embedded/10.3 2021.07/bin/../lib/gcc/arm-none-eabi/10.3.1/../../../../arm-none-eabi/lib/thumb/v7e-m/nofp\libm.a(lib_a-e_log.o) (__aeabi_dmul)
c:/chibistudio/tools/gnu tools arm embedded/10.3 2021.07/bin/../lib/gcc/arm-none-eabi/10.3.1/thumb/v7e-m/nofp\libgcc.a(_arm_addsubdf3.o)
                              c:/chibistudio/tools/gnu tools arm embedded/10.3 2021.07/bin/../lib/gcc/arm-none-eabi/10.3.1/../../../../arm-none-eabi/lib/thumb/v7e-m/nofp\libm.a(lib_a-e_log.o) (__aeabi_dsub)
c:/chibistudio/tools/gnu tools arm embedded/10.3 2021.07/bin/../lib/gcc/arm-none-eabi/10.3.1/thumb/v7e-m/nofp\libgcc.a(_arm_muldivdf3.o)
                              c:/chibistudio/tools/gnu tools arm embedded/10.3 2021.07/bin/../lib/gcc/arm-none-eabi/10.3.1/../../../../arm-none-eabi/lib/thumb/v7e-m/nofp\libm.a(lib_a-e_log.o) (__aeabi_ddiv)
c:/chibistudio/tools/gnu tools arm embedded/10.3 2021.07/bin/../lib/gcc/arm-none-eabi/10.3.1/thumb/v7e-m/nofp\libgcc.a(_arm_cmpdf2.o)
                              c:/chibistudio/tools/gnu tools arm embedded/10.3 2021.07/bin/../lib/gcc/arm-none-eabi/10.3.1/../../../../arm-none-eabi/lib/thumb/v7e-m/nofp\libm.a(lib_a-w_log.o) (__aeabi_dcmpeq)
c:/chibistudio/tools/gnu tools arm embedded/10.3 2021.07/bin/../lib/gcc/arm-none-eabi/10.3.1/thumb/v7e-m/nofp\libgcc.a(_arm_unorddf2.o)
                              c:/chibistudio/tools/gnu tools arm embedded/10.3 2021.07/bin/../lib/gcc/arm-none-eabi/10.3.1/../../../../arm-none-eabi/lib/thumb/v7e-m/nofp\libm.a(lib_a-w_log.o) (__aeabi_dcmpun)
c:/chibistudio/tools/gnu tools arm embedded/10.3 2021.07/bin/../lib/gcc/arm-none-eabi/10.3.1/../../../../arm-none-eabi/lib/thumb/v7e-m/nofp\libg.a(lib_a-ctype_.o)
                              ./build/obj/chscanf.o (symbol from plugin) (_ctype_)
c:/chibistudio/tools/gnu tools arm embedded/10.3 2021.07/bin/../lib/gcc/arm-none-eabi/10.3.1/../../../../arm-none-eabi/lib/thumb/v7e-m/nofp\libg.a(lib_a-errno.o)
                              c:/chibistudio/tools/gnu tools arm embedded/10.3 2021.07/bin/../lib/gcc/arm-none-eabi/10.3.1/../../../../arm-none-eabi/lib/thumb/v7e-m/nofp\libm.a(lib_a-w_log.o) (__errno)
c:/chibistudio/tools/gnu tools arm embedded/10.3 2021.07/bin/../lib/gcc/arm-none-eabi/10.3.1/../../../../arm-none-eabi/lib/thumb/v7e-m/nofp\libg.a(lib_a-impure.o)
                              c:/chibistudio/tools/gnu tools arm embedded/10.3 2021.07/bin/../lib/gcc/arm-none-eabi/10.3.1/../../../../arm-none-eabi/lib/thumb/v7e-m/nofp\libg.a(lib_a-errno.o) (_impure_ptr)
c:/chibistudio/tools/gnu tools arm embedded/10.3 2021.07/bin/../lib/gcc/arm-none-eabi/10.3.1/../../../../arm-none-eabi/lib/thumb/v7e-m/nofp\libg.a(lib_a-strtod.o)
                              ./build/obj/digital_driver.o (symbol from plugin) (strtof)
c:/chibistudio/tools/gnu tools arm embedded/10.3 2021.07/bin/../lib/gcc/arm-none-eabi/10.3.1/../../../../arm-none-eabi/lib/thumb/v7e-m/nofp\libg.a(lib_a-gdtoa-gethex.o)
                              c:/chibistudio/tools/gnu tools arm embedded/10.3 2021.07/bin/../lib/gcc/arm-none-eabi/10.3.1/../../../../arm-none-eabi/lib/thumb/v7e-m/nofp\libg.a(lib_a-strtod.o) (__gethex)
c:/chibistudio/tools/gnu tools arm embedded/10.3 2021.07/bin/../lib/gcc/arm-none-eabi/10.3.1/../../../../arm-none-eabi/lib/thumb/v7e-m/nofp\libg.a(lib_a-gdtoa-hexnan.o)
                              c:/chibistudio/tools/gnu tools arm embedded/10.3 2021.07/bin/../lib/gcc/arm-none-eabi/10.3.1/../../../../arm-none-eabi/lib/thumb/v7e-m/nofp\libg.a(lib_a-strtod.o) (__match)
c:/chibistudio/tools/gnu tools arm embedded/10.3 2021.07/bin/../lib/gcc/arm-none-eabi/10.3.1/../../../../arm-none-eabi/lib/thumb/v7e-m/nofp\libg.a(lib_a-lnumeric.o)
                              c:/chibistudio/tools/gnu tools arm embedded/10.3 2021.07/bin/../lib/gcc/arm-none-eabi/10.3.1/../../../../arm-none-eabi/lib/thumb/v7e-m/nofp\libg.a(lib_a-strtod.o) (_C_numeric_locale)
c:/chibistudio/tools/gnu tools arm embedded/10.3 2021.07/bin/../lib/gcc/arm-none-eabi/10.3.1/../../../../arm-none-eabi/lib/thumb/v7e-m/nofp\libg.a(lib_a-locale.o)
                              c:/chibistudio/tools/gnu tools arm embedded/10.3 2021.07/bin/../lib/gcc/arm-none-eabi/10.3.1/../../../../arm-none-eabi/lib/thumb/v7e-m/nofp\libg.a(lib_a-strtod.o) (__global_locale)
c:/chibistudio/tools/gnu tools arm embedded/10.3 2021.07/bin/../lib/gcc/arm-none-eabi/10.3.1/../../../../arm-none-eabi/lib/thumb/v7e-m/nofp\libg.a(lib_a-mbtowc_r.o)
                              c:/chibistudio/tools/gnu tools arm embedded/10.3 2021.07/bin/../lib/gcc/arm-none-eabi/10.3.1/../../../../arm-none-eabi/lib/thumb/v7e-m/nofp\libg.a(lib_a-locale.o) (__ascii_mbtowc)
c:/chibistudio/tools/gnu tools arm embedded/10.3 2021.07/bin/../lib/gcc/arm-none-eabi/10.3.1/../../../../arm-none-eabi/lib/thumb/v7e-m/nofp\libg.a(lib_a-memcpy.o)
                              c:/chibistudio/tools/gnu tools arm embedded/10.3 2021.07/bin/../lib/gcc/arm-none-eabi/10.3.1/../../../../arm-none-eabi/lib/thumb/v7e-m/nofp\libg.a(lib_a-strtod.o) (memcpy)
c:/chibistudio/tools/gnu tools arm embedded/10.3 2021.07/bin/../lib/gcc/arm-none-eabi/10.3.1/../../../../arm-none-eabi/lib/thumb/v7e-m/nofp\libg.a(lib_a-mprec.o)
                              c:/chibistudio/tools/gnu tools arm embedded/10.3 2021.07/bin/../lib/gcc/arm-none-eabi/10.3.1/../../../../arm-none-eabi/lib/thumb/v7e-m/nofp\libg.a(lib_a-strtod.o) (_Balloc)
c:/chibistudio/tools/gnu tools arm embedded/10.3 2021.07/bin/../lib/gcc/arm-none-eabi/10.3.1/../../../../arm-none-eabi/lib/thumb/v7e-m/nofp\libg.a(lib_a-sf_nan.o)
                              c:/chibistudio/tools/gnu tools arm embedded/10.3 2021.07/bin/../lib/gcc/arm-none-eabi/10.3.1/../../../../arm-none-eabi/lib/thumb/v7e-m/nofp\libg.a(lib_a-strtod.o) (nanf)
c:/chibistudio/tools/gnu tools arm embedded/10.3 2021.07/bin/../lib/gcc/arm-none-eabi/10.3.1/../../../../arm-none-eabi/lib/thumb/v7e-m/nofp\libg.a(lib_a-strcmp.o)
                              c:/chibistudio/tools/gnu tools arm embedded/10.3 2021.07/bin/../lib/gcc/arm-none-eabi/10.3.1/../../../../arm-none-eabi/lib/thumb/v7e-m/nofp\libg.a(lib_a-locale.o) (strcmp)
c:/chibistudio/tools/gnu tools arm embedded/10.3 2021.07/bin/../lib/gcc/arm-none-eabi/10.3.1/../../../../arm-none-eabi/lib/thumb/v7e-m/nofp\libg.a(lib_a-strlen.o)
                              c:/chibistudio/tools/gnu tools arm embedded/10.3 2021.07/bin/../lib/gcc/arm-none-eabi/10.3.1/../../../../arm-none-eabi/lib/thumb/v7e-m/nofp\libg.a(lib_a-strtod.o) (strlen)
c:/chibistudio/tools/gnu tools arm embedded/10.3 2021.07/bin/../lib/gcc/arm-none-eabi/10.3.1/../../../../arm-none-eabi/lib/thumb/v7e-m/nofp\libg.a(lib_a-strncmp.o)
                              c:/chibistudio/tools/gnu tools arm embedded/10.3 2021.07/bin/../lib/gcc/arm-none-eabi/10.3.1/../../../../arm-none-eabi/lib/thumb/v7e-m/nofp\libg.a(lib_a-strtod.o) (strncmp)
c:/chibistudio/tools/gnu tools arm embedded/10.3 2021.07/bin/../lib/gcc/arm-none-eabi/10.3.1/../../../../arm-none-eabi/lib/thumb/v7e-m/nofp\libg.a(lib_a-wctomb_r.o)
                              c:/chibistudio/tools/gnu tools arm embedded/10.3 2021.07/bin/../lib/gcc/arm-none-eabi/10.3.1/../../../../arm-none-eabi/lib/thumb/v7e-m/nofp\libg.a(lib_a-locale.o) (__ascii_wctomb)
c:/chibistudio/tools/gnu tools arm embedded/10.3 2021.07/bin/../lib/gcc/arm-none-eabi/10.3.1/../../../../arm-none-eabi/lib/thumb/v7e-m/nofp\libg.a(lib_a-assert.o)
                              c:/chibistudio/tools/gnu tools arm embedded/10.3 2021.07/bin/../lib/gcc/arm-none-eabi/10.3.1/../../../../arm-none-eabi/lib/thumb/v7e-m/nofp\libg.a(lib_a-gdtoa-gethex.o) (__assert_func)
c:/chibistudio/tools/gnu tools arm embedded/10.3 2021.07/bin/../lib/gcc/arm-none-eabi/10.3.1/../../../../arm-none-eabi/lib/thumb/v7e-m/nofp\libg.a(lib_a-callocr.o)
                              c:/chibistudio/tools/gnu tools arm embedded/10.3 2021.07/bin/../lib/gcc/arm-none-eabi/10.3.1/../../../../arm-none-eabi/lib/thumb/v7e-m/nofp\libg.a(lib_a-mprec.o) (_calloc_r)
c:/chibistudio/tools/gnu tools arm embedded/10.3 2021.07/bin/../lib/gcc/arm-none-eabi/10.3.1/../../../../arm-none-eabi/lib/thumb/v7e-m/nofp\libg.a(lib_a-fiprintf.o)
                              c:/chibistudio/tools/gnu tools arm embedded/10.3 2021.07/bin/../lib/gcc/arm-none-eabi/10.3.1/../../../../arm-none-eabi/lib/thumb/v7e-m/nofp\libg.a(lib_a-assert.o) (fiprintf)
c:/chibistudio/tools/gnu tools arm embedded/10.3 2021.07/bin/../lib/gcc/arm-none-eabi/10.3.1/../../../../arm-none-eabi/lib/thumb/v7e-m/nofp\libg.a(lib_a-mallocr.o)
                              c:/chibistudio/tools/gnu tools arm embedded/10.3 2021.07/bin/../lib/gcc/arm-none-eabi/10.3.1/../../../../arm-none-eabi/lib/thumb/v7e-m/nofp\libg.a(lib_a-callocr.o) (_malloc_r)
c:/chibistudio/tools/gnu tools arm embedded/10.3 2021.07/bin/../lib/gcc/arm-none-eabi/10.3.1/../../../../arm-none-eabi/lib/thumb/v7e-m/nofp\libg.a(lib_a-memset.o)
                              c:/chibistudio/tools/gnu tools arm embedded/10.3 2021.07/bin/../lib/gcc/arm-none-eabi/10.3.1/../../../../arm-none-eabi/lib/thumb/v7e-m/nofp\libg.a(lib_a-callocr.o) (memset)
c:/chibistudio/tools/gnu tools arm embedded/10.3 2021.07/bin/../lib/gcc/arm-none-eabi/10.3.1/../../../../arm-none-eabi/lib/thumb/v7e-m/nofp\libg.a(lib_a-mlock.o)
                              c:/chibistudio/tools/gnu tools arm embedded/10.3 2021.07/bin/../lib/gcc/arm-none-eabi/10.3.1/../../../../arm-none-eabi/lib/thumb/v7e-m/nofp\libg.a(lib_a-mallocr.o) (__malloc_lock)
c:/chibistudio/tools/gnu tools arm embedded/10.3 2021.07/bin/../lib/gcc/arm-none-eabi/10.3.1/../../../../arm-none-eabi/lib/thumb/v7e-m/nofp\libg.a(lib_a-vfiprintf.o)
                              c:/chibistudio/tools/gnu tools arm embedded/10.3 2021.07/bin/../lib/gcc/arm-none-eabi/10.3.1/../../../../arm-none-eabi/lib/thumb/v7e-m/nofp\libg.a(lib_a-fiprintf.o) (_vfiprintf_r)
c:/chibistudio/tools/gnu tools arm embedded/10.3 2021.07/bin/../lib/gcc/arm-none-eabi/10.3.1/../../../../arm-none-eabi/lib/thumb/v7e-m/nofp\libg.a(lib_a-wsetup.o)
                              c:/chibistudio/tools/gnu tools arm embedded/10.3 2021.07/bin/../lib/gcc/arm-none-eabi/10.3.1/../../../../arm-none-eabi/lib/thumb/v7e-m/nofp\libg.a(lib_a-vfiprintf.o) (__swsetup_r)
c:/chibistudio/tools/gnu tools arm embedded/10.3 2021.07/bin/../lib/gcc/arm-none-eabi/10.3.1/../../../../arm-none-eabi/lib/thumb/v7e-m/nofp\libg.a(lib_a-abort.o)
                              c:/chibistudio/tools/gnu tools arm embedded/10.3 2021.07/bin/../lib/gcc/arm-none-eabi/10.3.1/../../../../arm-none-eabi/lib/thumb/v7e-m/nofp\libg.a(lib_a-assert.o) (abort)
c:/chibistudio/tools/gnu tools arm embedded/10.3 2021.07/bin/../lib/gcc/arm-none-eabi/10.3.1/../../../../arm-none-eabi/lib/thumb/v7e-m/nofp\libg.a(lib_a-fflush.o)
                              c:/chibistudio/tools/gnu tools arm embedded/10.3 2021.07/bin/../lib/gcc/arm-none-eabi/10.3.1/../../../../arm-none-eabi/lib/thumb/v7e-m/nofp\libg.a(lib_a-vfiprintf.o) (_fflush_r)
c:/chibistudio/tools/gnu tools arm embedded/10.3 2021.07/bin/../lib/gcc/arm-none-eabi/10.3.1/../../../../arm-none-eabi/lib/thumb/v7e-m/nofp\libg.a(lib_a-findfp.o)
                              c:/chibistudio/tools/gnu tools arm embedded/10.3 2021.07/bin/../lib/gcc/arm-none-eabi/10.3.1/../../../../arm-none-eabi/lib/thumb/v7e-m/nofp\libg.a(lib_a-vfiprintf.o) (__sinit)
c:/chibistudio/tools/gnu tools arm embedded/10.3 2021.07/bin/../lib/gcc/arm-none-eabi/10.3.1/../../../../arm-none-eabi/lib/thumb/v7e-m/nofp\libg.a(lib_a-fputwc.o)
                              c:/chibistudio/tools/gnu tools arm embedded/10.3 2021.07/bin/../lib/gcc/arm-none-eabi/10.3.1/../../../../arm-none-eabi/lib/thumb/v7e-m/nofp\libg.a(lib_a-vfiprintf.o) (_fputwc_r)
c:/chibistudio/tools/gnu tools arm embedded/10.3 2021.07/bin/../lib/gcc/arm-none-eabi/10.3.1/../../../../arm-none-eabi/lib/thumb/v7e-m/nofp\libg.a(lib_a-freer.o)
                              c:/chibistudio/tools/gnu tools arm embedded/10.3 2021.07/bin/../lib/gcc/arm-none-eabi/10.3.1/../../../../arm-none-eabi/lib/thumb/v7e-m/nofp\libg.a(lib_a-mallocr.o) (_free_r)
c:/chibistudio/tools/gnu tools arm embedded/10.3 2021.07/bin/../lib/gcc/arm-none-eabi/10.3.1/../../../../arm-none-eabi/lib/thumb/v7e-m/nofp\libg.a(lib_a-fvwrite.o)
                              c:/chibistudio/tools/gnu tools arm embedded/10.3 2021.07/bin/../lib/gcc/arm-none-eabi/10.3.1/../../../../arm-none-eabi/lib/thumb/v7e-m/nofp\libg.a(lib_a-vfiprintf.o) (__sfvwrite_r)
c:/chibistudio/tools/gnu tools arm embedded/10.3 2021.07/bin/../lib/gcc/arm-none-eabi/10.3.1/../../../../arm-none-eabi/lib/thumb/v7e-m/nofp\libg.a(lib_a-fwalk.o)
                              c:/chibistudio/tools/gnu tools arm embedded/10.3 2021.07/bin/../lib/gcc/arm-none-eabi/10.3.1/../../../../arm-none-eabi/lib/thumb/v7e-m/nofp\libg.a(lib_a-findfp.o) (_fwalk)
c:/chibistudio/tools/gnu tools arm embedded/10.3 2021.07/bin/../lib/gcc/arm-none-eabi/10.3.1/../../../../arm-none-eabi/lib/thumb/v7e-m/nofp\libg.a(lib_a-localeconv.o)
                              c:/chibistudio/tools/gnu tools arm embedded/10.3 2021.07/bin/../lib/gcc/arm-none-eabi/10.3.1/../../../../arm-none-eabi/lib/thumb/v7e-m/nofp\libg.a(lib_a-vfiprintf.o) (_localeconv_r)
c:/chibistudio/tools/gnu tools arm embedded/10.3 2021.07/bin/../lib/gcc/arm-none-eabi/10.3.1/../../../../arm-none-eabi/lib/thumb/v7e-m/nofp\libg.a(lib_a-lock.o)
                              c:/chibistudio/tools/gnu tools arm embedded/10.3 2021.07/bin/../lib/gcc/arm-none-eabi/10.3.1/../../../../arm-none-eabi/lib/thumb/v7e-m/nofp\libg.a(lib_a-vfiprintf.o) (__retarget_lock_init_recursive)
c:/chibistudio/tools/gnu tools arm embedded/10.3 2021.07/bin/../lib/gcc/arm-none-eabi/10.3.1/../../../../arm-none-eabi/lib/thumb/v7e-m/nofp\libg.a(lib_a-makebuf.o)
                              c:/chibistudio/tools/gnu tools arm embedded/10.3 2021.07/bin/../lib/gcc/arm-none-eabi/10.3.1/../../../../arm-none-eabi/lib/thumb/v7e-m/nofp\libg.a(lib_a-wsetup.o) (__smakebuf_r)
c:/chibistudio/tools/gnu tools arm embedded/10.3 2021.07/bin/../lib/gcc/arm-none-eabi/10.3.1/../../../../arm-none-eabi/lib/thumb/v7e-m/nofp\libg.a(lib_a-memchr.o)
                              c:/chibistudio/tools/gnu tools arm embedded/10.3 2021.07/bin/../lib/gcc/arm-none-eabi/10.3.1/../../../../arm-none-eabi/lib/thumb/v7e-m/nofp\libg.a(lib_a-vfiprintf.o) (memchr)
c:/chibistudio/tools/gnu tools arm embedded/10.3 2021.07/bin/../lib/gcc/arm-none-eabi/10.3.1/../../../../arm-none-eabi/lib/thumb/v7e-m/nofp\libg.a(lib_a-memmove.o)
                              c:/chibistudio/tools/gnu tools arm embedded/10.3 2021.07/bin/../lib/gcc/arm-none-eabi/10.3.1/../../../../arm-none-eabi/lib/thumb/v7e-m/nofp\libg.a(lib_a-fvwrite.o) (memmove)
c:/chibistudio/tools/gnu tools arm embedded/10.3 2021.07/bin/../lib/gcc/arm-none-eabi/10.3.1/../../../../arm-none-eabi/lib/thumb/v7e-m/nofp\libg.a(lib_a-reallocr.o)
                              c:/chibistudio/tools/gnu tools arm embedded/10.3 2021.07/bin/../lib/gcc/arm-none-eabi/10.3.1/../../../../arm-none-eabi/lib/thumb/v7e-m/nofp\libg.a(lib_a-fvwrite.o) (_realloc_r)
c:/chibistudio/tools/gnu tools arm embedded/10.3 2021.07/bin/../lib/gcc/arm-none-eabi/10.3.1/../../../../arm-none-eabi/lib/thumb/v7e-m/nofp\libg.a(lib_a-signal.o)
                              c:/chibistudio/tools/gnu tools arm embedded/10.3 2021.07/bin/../lib/gcc/arm-none-eabi/10.3.1/../../../../arm-none-eabi/lib/thumb/v7e-m/nofp\libg.a(lib_a-abort.o) (raise)
c:/chibistudio/tools/gnu tools arm embedded/10.3 2021.07/bin/../lib/gcc/arm-none-eabi/10.3.1/../../../../arm-none-eabi/lib/thumb/v7e-m/nofp\libg.a(lib_a-signalr.o)
                              c:/chibistudio/tools/gnu tools arm embedded/10.3 2021.07/bin/../lib/gcc/arm-none-eabi/10.3.1/../../../../arm-none-eabi/lib/thumb/v7e-m/nofp\libg.a(lib_a-signal.o) (_kill_r)
c:/chibistudio/tools/gnu tools arm embedded/10.3 2021.07/bin/../lib/gcc/arm-none-eabi/10.3.1/../../../../arm-none-eabi/lib/thumb/v7e-m/nofp\libg.a(lib_a-stdio.o)
                              c:/chibistudio/tools/gnu tools arm embedded/10.3 2021.07/bin/../lib/gcc/arm-none-eabi/10.3.1/../../../../arm-none-eabi/lib/thumb/v7e-m/nofp\libg.a(lib_a-findfp.o) (__sread)
c:/chibistudio/tools/gnu tools arm embedded/10.3 2021.07/bin/../lib/gcc/arm-none-eabi/10.3.1/../../../../arm-none-eabi/lib/thumb/v7e-m/nofp\libg.a(lib_a-strncpy.o)
                              c:/chibistudio/tools/gnu tools arm embedded/10.3 2021.07/bin/../lib/gcc/arm-none-eabi/10.3.1/../../../../arm-none-eabi/lib/thumb/v7e-m/nofp\libg.a(lib_a-vfiprintf.o) (strncpy)
c:/chibistudio/tools/gnu tools arm embedded/10.3 2021.07/bin/../lib/gcc/arm-none-eabi/10.3.1/../../../../arm-none-eabi/lib/thumb/v7e-m/nofp\libg.a(lib_a-wbuf.o)
                              c:/chibistudio/tools/gnu tools arm embedded/10.3 2021.07/bin/../lib/gcc/arm-none-eabi/10.3.1/../../../../arm-none-eabi/lib/thumb/v7e-m/nofp\libg.a(lib_a-fputwc.o) (__swbuf_r)
c:/chibistudio/tools/gnu tools arm embedded/10.3 2021.07/bin/../lib/gcc/arm-none-eabi/10.3.1/../../../../arm-none-eabi/lib/thumb/v7e-m/nofp\libg.a(lib_a-wcrtomb.o)
                              c:/chibistudio/tools/gnu tools arm embedded/10.3 2021.07/bin/../lib/gcc/arm-none-eabi/10.3.1/../../../../arm-none-eabi/lib/thumb/v7e-m/nofp\libg.a(lib_a-fputwc.o) (_wcrtomb_r)
c:/chibistudio/tools/gnu tools arm embedded/10.3 2021.07/bin/../lib/gcc/arm-none-eabi/10.3.1/../../../../arm-none-eabi/lib/thumb/v7e-m/nofp\libg.a(lib_a-fclose.o)
                              c:/chibistudio/tools/gnu tools arm embedded/10.3 2021.07/bin/../lib/gcc/arm-none-eabi/10.3.1/../../../../arm-none-eabi/lib/thumb/v7e-m/nofp\libg.a(lib_a-findfp.o) (_fclose_r)
c:/chibistudio/tools/gnu tools arm embedded/10.3 2021.07/bin/../lib/gcc/arm-none-eabi/10.3.1/../../../../arm-none-eabi/lib/thumb/v7e-m/nofp\libg.a(lib_a-reent.o)
                              c:/chibistudio/tools/gnu tools arm embedded/10.3 2021.07/bin/../lib/gcc/arm-none-eabi/10.3.1/../../../../arm-none-eabi/lib/thumb/v7e-m/nofp\libg.a(lib_a-signalr.o) (errno)
c:/chibistudio/tools/gnu tools arm embedded/10.3 2021.07/bin/../lib/gcc/arm-none-eabi/10.3.1/thumb/v7e-m/nofp\libgcc.a(_arm_fixunsdfsi.o)
                              c:/chibistudio/tools/gnu tools arm embedded/10.3 2021.07/bin/../lib/gcc/arm-none-eabi/10.3.1/../../../../arm-none-eabi/lib/thumb/v7e-m/nofp\libg.a(lib_a-strtod.o) (__aeabi_d2uiz)
c:/chibistudio/tools/gnu tools arm embedded/10.3 2021.07/bin/../lib/gcc/arm-none-eabi/10.3.1/thumb/v7e-m/nofp\libgcc.a(_arm_truncdfsf2.o)
                              c:/chibistudio/tools/gnu tools arm embedded/10.3 2021.07/bin/../lib/gcc/arm-none-eabi/10.3.1/../../../../arm-none-eabi/lib/thumb/v7e-m/nofp\libg.a(lib_a-strtod.o) (__aeabi_d2f)
c:/chibistudio/tools/gnu tools arm embedded/10.3 2021.07/bin/../lib/gcc/arm-none-eabi/10.3.1/thumb/v7e-m/nofp\libgcc.a(_arm_cmpsf2.o)
                              c:/chibistudio/tools/gnu tools arm embedded/10.3 2021.07/bin/../lib/gcc/arm-none-eabi/10.3.1/../../../../arm-none-eabi/lib/thumb/v7e-m/nofp\libg.a(lib_a-strtod.o) (__aeabi_fcmple)
c:/chibistudio/tools/gnu tools arm embedded/10.3 2021.07/bin/../lib/gcc/arm-none-eabi/10.3.1/thumb/v7e-m/nofp\libgcc.a(_arm_unordsf2.o)
                              c:/chibistudio/tools/gnu tools arm embedded/10.3 2021.07/bin/../lib/gcc/arm-none-eabi/10.3.1/../../../../arm-none-eabi/lib/thumb/v7e-m/nofp\libg.a(lib_a-strtod.o) (__aeabi_fcmpun)
c:/chibistudio/tools/gnu tools arm embedded/10.3 2021.07/bin/../lib/gcc/arm-none-eabi/10.3.1/thumb/v7e-m/nofp\libgcc.a(_aeabi_uldivmod.o)
                              c:/chibistudio/tools/gnu tools arm embedded/10.3 2021.07/bin/../lib/gcc/arm-none-eabi/10.3.1/../../../../arm-none-eabi/lib/thumb/v7e-m/nofp\libg.a(lib_a-vfiprintf.o) (__aeabi_uldivmod)
c:/chibistudio/tools/gnu tools arm embedded/10.3 2021.07/bin/../lib/gcc/arm-none-eabi/10.3.1/thumb/v7e-m/nofp\libgcc.a(_fixdfdi.o)
                              c:/chibistudio/tools/gnu tools arm embedded/10.3 2021.07/bin/../lib/gcc/arm-none-eabi/10.3.1/../../../../arm-none-eabi/lib/thumb/v7e-m/nofp\libg.a(lib_a-strtod.o) (__aeabi_d2lz)
c:/chibistudio/tools/gnu tools arm embedded/10.3 2021.07/bin/../lib/gcc/arm-none-eabi/10.3.1/thumb/v7e-m/nofp\libgcc.a(_fixunsdfdi.o)
                              c:/chibistudio/tools/gnu tools arm embedded/10.3 2021.07/bin/../lib/gcc/arm-none-eabi/10.3.1/thumb/v7e-m/nofp\libgcc.a(_fixdfdi.o) (__aeabi_d2ulz)
c:/chibistudio/tools/gnu tools arm embedded/10.3 2021.07/bin/../lib/gcc/arm-none-eabi/10.3.1/thumb/v7e-m/nofp\libgcc.a(_udivmoddi4.o)
                              c:/chibistudio/tools/gnu tools arm embedded/10.3 2021.07/bin/../lib/gcc/arm-none-eabi/10.3.1/thumb/v7e-m/nofp\libgcc.a(_aeabi_uldivmod.o) (__udivmoddi4)
c:/chibistudio/tools/gnu tools arm embedded/10.3 2021.07/bin/../lib/gcc/arm-none-eabi/10.3.1/thumb/v7e-m/nofp\libgcc.a(_dvmd_tls.o)
                              c:/chibistudio/tools/gnu tools arm embedded/10.3 2021.07/bin/../lib/gcc/arm-none-eabi/10.3.1/thumb/v7e-m/nofp\libgcc.a(_aeabi_uldivmod.o) (__aeabi_ldiv0)
c:/chibistudio/tools/gnu tools arm embedded/10.3 2021.07/bin/../lib/gcc/arm-none-eabi/10.3.1/thumb/v7e-m/nofp\libgcc.a(_arm_mulsf3.o)
                              C:\Users\zerog\AppData\Local\Temp\APS_DIGITAL_CGG.elf.PLIgTd.ltrans0.ltrans.o (__aeabi_fmul)
c:/chibistudio/tools/gnu tools arm embedded/10.3 2021.07/bin/../lib/gcc/arm-none-eabi/10.3.1/thumb/v7e-m/nofp\libgcc.a(_arm_fixdfsi.o)
                              C:\Users\zerog\AppData\Local\Temp\APS_DIGITAL_CGG.elf.PLIgTd.ltrans0.ltrans.o (__aeabi_d2iz)
c:/chibistudio/tools/gnu tools arm embedded/10.3 2021.07/bin/../lib/gcc/arm-none-eabi/10.3.1/thumb/v7e-m/nofp\libgcc.a(_arm_fixsfsi.o)
                              C:\Users\zerog\AppData\Local\Temp\APS_DIGITAL_CGG.elf.PLIgTd.ltrans0.ltrans.o (__aeabi_f2iz)
c:/chibistudio/tools/gnu tools arm embedded/10.3 2021.07/bin/../lib/gcc/arm-none-eabi/10.3.1/thumb/v7e-m/nofp\libgcc.a(_arm_fixunssfsi.o)
                              C:\Users\zerog\AppData\Local\Temp\APS_DIGITAL_CGG.elf.PLIgTd.ltrans0.ltrans.o (__aeabi_f2uiz)
c:/chibistudio/tools/gnu tools arm embedded/10.3 2021.07/bin/../lib/gcc/arm-none-eabi/10.3.1/thumb/v7e-m/nofp\libgcc.a(_aeabi_ldivmod.o)
                              C:\Users\zerog\AppData\Local\Temp\APS_DIGITAL_CGG.elf.PLIgTd.ltrans0.ltrans.o (__aeabi_ldivmod)
c:/chibistudio/tools/gnu tools arm embedded/10.3 2021.07/bin/../lib/gcc/arm-none-eabi/10.3.1/../../../../arm-none-eabi/lib/thumb/v7e-m/nofp\libg.a(lib_a-strcasecmp.o)
                              C:\Users\zerog\AppData\Local\Temp\APS_DIGITAL_CGG.elf.PLIgTd.ltrans0.ltrans.o (strcasecmp)
c:/chibistudio/tools/gnu tools arm embedded/10.3 2021.07/bin/../lib/gcc/arm-none-eabi/10.3.1/../../../../arm-none-eabi/lib/thumb/v7e-m/nofp\libg.a(lib_a-strchr.o)
                              C:\Users\zerog\AppData\Local\Temp\APS_DIGITAL_CGG.elf.PLIgTd.ltrans0.ltrans.o (strchr)
c:/chibistudio/tools/gnu tools arm embedded/10.3 2021.07/bin/../lib/gcc/arm-none-eabi/10.3.1/../../../../arm-none-eabi/lib/thumb/v7e-m/nofp\libg.a(lib_a-strpbrk.o)
                              C:\Users\zerog\AppData\Local\Temp\APS_DIGITAL_CGG.elf.PLIgTd.ltrans0.ltrans.o (strpbrk)
c:/chibistudio/tools/gnu tools arm embedded/10.3 2021.07/bin/../lib/gcc/arm-none-eabi/10.3.1/../../../../arm-none-eabi/lib/thumb/v7e-m/nofp\libg.a(lib_a-strspn.o)
                              C:\Users\zerog\AppData\Local\Temp\APS_DIGITAL_CGG.elf.PLIgTd.ltrans0.ltrans.o (strspn)

Discarded input sections

 .data          0x00000000        0x0 ./build/obj/crt0_v7m.o
 .bss           0x00000000        0x0 ./build/obj/crt0_v7m.o
 .data          0x00000000        0x0 ./build/obj/vectors.o
 .bss           0x00000000        0x0 ./build/obj/vectors.o
 .data          0x00000000        0x0 ./build/obj/chcoreasm.o
 .bss           0x00000000        0x0 ./build/obj/chcoreasm.o
 .text          0x00000000        0x0 C:\Users\zerog\AppData\Local\Temp\APS_DIGITAL_CGG.elf.PLIgTd.ltrans0.ltrans.o
 .data          0x00000000        0x0 C:\Users\zerog\AppData\Local\Temp\APS_DIGITAL_CGG.elf.PLIgTd.ltrans0.ltrans.o
 .bss           0x00000000        0x0 C:\Users\zerog\AppData\Local\Temp\APS_DIGITAL_CGG.elf.PLIgTd.ltrans0.ltrans.o
 .text._open_r  0x00000000        0xc C:\Users\zerog\AppData\Local\Temp\APS_DIGITAL_CGG.elf.PLIgTd.ltrans0.ltrans.o
 .comment       0x00000000       0x4a C:\Users\zerog\AppData\Local\Temp\ccOf8eYl.debug.temp.o
 .comment       0x00000000       0x4a C:\Users\zerog\AppData\Local\Temp\cc87Y6jq.debug.temp.o
 .comment       0x00000000       0x4a C:\Users\zerog\AppData\Local\Temp\ccurFesu.debug.temp.o
 .debug_info    0x00000000      0xd68 C:\Users\zerog\AppData\Local\Temp\ccQKlmAy.debug.temp.o
 .debug_abbrev  0x00000000      0x1de C:\Users\zerog\AppData\Local\Temp\ccQKlmAy.debug.temp.o
 .debug_line    0x00000000      0x31f C:\Users\zerog\AppData\Local\Temp\ccQKlmAy.debug.temp.o
 .debug_str     0x00000000      0x851 C:\Users\zerog\AppData\Local\Temp\ccQKlmAy.debug.temp.o
 .comment       0x00000000       0x4a C:\Users\zerog\AppData\Local\Temp\ccQKlmAy.debug.temp.o
 .comment       0x00000000       0x4a C:\Users\zerog\AppData\Local\Temp\ccmnLjNC.debug.temp.o
 .debug_info    0x00000000      0xfde C:\Users\zerog\AppData\Local\Temp\cckm59mH.debug.temp.o
 .debug_abbrev  0x00000000      0x268 C:\Users\zerog\AppData\Local\Temp\cckm59mH.debug.temp.o
 .debug_line    0x00000000      0x34f C:\Users\zerog\AppData\Local\Temp\cckm59mH.debug.temp.o
 .debug_str     0x00000000      0x8b2 C:\Users\zerog\AppData\Local\Temp\cckm59mH.debug.temp.o
 .comment       0x00000000       0x4a C:\Users\zerog\AppData\Local\Temp\cckm59mH.debug.temp.o
 .debug_info    0x00000000      0x5de C:\Users\zerog\AppData\Local\Temp\ccilp0WL.debug.temp.o
 .debug_abbrev  0x00000000      0x13e C:\Users\zerog\AppData\Local\Temp\ccilp0WL.debug.temp.o
 .debug_line    0x00000000      0x20a C:\Users\zerog\AppData\Local\Temp\ccilp0WL.debug.temp.o
 .debug_str     0x00000000      0x51c C:\Users\zerog\AppData\Local\Temp\ccilp0WL.debug.temp.o
 .comment       0x00000000       0x4a C:\Users\zerog\AppData\Local\Temp\ccilp0WL.debug.temp.o
 .debug_info    0x00000000       0x79 C:\Users\zerog\AppData\Local\Temp\ccqxjRAQ.debug.temp.o
 .debug_abbrev  0x00000000       0x26 C:\Users\zerog\AppData\Local\Temp\ccqxjRAQ.debug.temp.o
 .debug_line    0x00000000       0x1e C:\Users\zerog\AppData\Local\Temp\ccqxjRAQ.debug.temp.o
 .debug_str     0x00000000      0x1b3 C:\Users\zerog\AppData\Local\Temp\ccqxjRAQ.debug.temp.o
 .comment       0x00000000       0x4a C:\Users\zerog\AppData\Local\Temp\ccqxjRAQ.debug.temp.o
 .comment       0x00000000       0x4a C:\Users\zerog\AppData\Local\Temp\ccyJdIeV.debug.temp.o
 .debug_info    0x00000000      0xdf0 C:\Users\zerog\AppData\Local\Temp\ccke5lEZ.debug.temp.o
 .debug_abbrev  0x00000000      0x231 C:\Users\zerog\AppData\Local\Temp\ccke5lEZ.debug.temp.o
 .debug_line    0x00000000      0x37c C:\Users\zerog\AppData\Local\Temp\ccke5lEZ.debug.temp.o
 .debug_str     0x00000000      0x88b C:\Users\zerog\AppData\Local\Temp\ccke5lEZ.debug.temp.o
 .comment       0x00000000       0x4a C:\Users\zerog\AppData\Local\Temp\ccke5lEZ.debug.temp.o
 .comment       0x00000000       0x4a C:\Users\zerog\AppData\Local\Temp\cc6IWZ33.debug.temp.o
 .comment       0x00000000       0x4a C:\Users\zerog\AppData\Local\Temp\ccSdODt8.debug.temp.o
 .comment       0x00000000       0x4a C:\Users\zerog\AppData\Local\Temp\ccgs7e0c.debug.temp.o
 .comment       0x00000000       0x4a C:\Users\zerog\AppData\Local\Temp\ccEGqQwh.debug.temp.o
 .comment       0x00000000       0x4a C:\Users\zerog\AppData\Local\Temp\ccOdrvfl.debug.temp.o
 .comment       0x00000000       0x4a C:\Users\zerog\AppData\Local\Temp\ccYKraYo.debug.temp.o
 .comment       0x00000000       0x4a C:\Users\zerog\AppData\Local\Temp\cccunSus.debug.temp.o
 .debug_info    0x00000000       0x79 C:\Users\zerog\AppData\Local\Temp\ccqdjA1v.debug.temp.o
 .debug_abbrev  0x00000000       0x26 C:\Users\zerog\AppData\Local\Temp\ccqdjA1v.debug.temp.o
 .debug_line    0x00000000       0x1e C:\Users\zerog\AppData\Local\Temp\ccqdjA1v.debug.temp.o
 .debug_str     0x00000000      0x1c7 C:\Users\zerog\AppData\Local\Temp\ccqdjA1v.debug.temp.o
 .comment       0x00000000       0x4a C:\Users\zerog\AppData\Local\Temp\ccqdjA1v.debug.temp.o
 .comment       0x00000000       0x4a C:\Users\zerog\AppData\Local\Temp\ccEWeiyz.debug.temp.o
 .debug_info    0x00000000       0x79 C:\Users\zerog\AppData\Local\Temp\cciPws9C.debug.temp.o
 .debug_abbrev  0x00000000       0x26 C:\Users\zerog\AppData\Local\Temp\cciPws9C.debug.temp.o
 .debug_line    0x00000000       0x1e C:\Users\zerog\AppData\Local\Temp\cciPws9C.debug.temp.o
 .debug_str     0x00000000      0x1c7 C:\Users\zerog\AppData\Local\Temp\cciPws9C.debug.temp.o
 .comment       0x00000000       0x4a C:\Users\zerog\AppData\Local\Temp\cciPws9C.debug.temp.o
 .comment       0x00000000       0x4a C:\Users\zerog\AppData\Local\Temp\ccWHOCKG.debug.temp.o
 .comment       0x00000000       0x4a C:\Users\zerog\AppData\Local\Temp\ccufxHJK.debug.temp.o
 .comment       0x00000000       0x4a C:\Users\zerog\AppData\Local\Temp\cc2MfMIO.debug.temp.o
 .comment       0x00000000       0x4a C:\Users\zerog\AppData\Local\Temp\ccAokFMS.debug.temp.o
 .comment       0x00000000       0x4a C:\Users\zerog\AppData\Local\Temp\cc8ZoyQW.debug.temp.o
 .comment       0x00000000       0x4a C:\Users\zerog\AppData\Local\Temp\cckqXmG0.debug.temp.o
 .comment       0x00000000       0x4a C:\Users\zerog\AppData\Local\Temp\ccwQvbw4.debug.temp.o
 .debug_info    0x00000000       0x79 C:\Users\zerog\AppData\Local\Temp\cc2M7zq8.debug.temp.o
 .debug_abbrev  0x00000000       0x26 C:\Users\zerog\AppData\Local\Temp\cc2M7zq8.debug.temp.o
 .debug_line    0x00000000       0x1e C:\Users\zerog\AppData\Local\Temp\cc2M7zq8.debug.temp.o
 .debug_str     0x00000000      0x1b6 C:\Users\zerog\AppData\Local\Temp\cc2M7zq8.debug.temp.o
 .comment       0x00000000       0x4a C:\Users\zerog\AppData\Local\Temp\cc2M7zq8.debug.temp.o
 .comment       0x00000000       0x4a C:\Users\zerog\AppData\Local\Temp\ccyJJYkc.debug.temp.o
 .comment       0x00000000       0x4a C:\Users\zerog\AppData\Local\Temp\ccGJFprf.debug.temp.o
 .comment       0x00000000       0x4a C:\Users\zerog\AppData\Local\Temp\ccOJBQxi.debug.temp.o
 .debug_info    0x00000000       0x79 C:\Users\zerog\AppData\Local\Temp\ccSl4jKl.debug.temp.o
 .debug_abbrev  0x00000000       0x26 C:\Users\zerog\AppData\Local\Temp\ccSl4jKl.debug.temp.o
 .debug_line    0x00000000       0x1e C:\Users\zerog\AppData\Local\Temp\ccSl4jKl.debug.temp.o
 .debug_str     0x00000000      0x1b0 C:\Users\zerog\AppData\Local\Temp\ccSl4jKl.debug.temp.o
 .comment       0x00000000       0x4a C:\Users\zerog\AppData\Local\Temp\ccSl4jKl.debug.temp.o
 .comment       0x00000000       0x4a C:\Users\zerog\AppData\Local\Temp\ccWXwNWo.debug.temp.o
 .comment       0x00000000       0x4a C:\Users\zerog\AppData\Local\Temp\cc0zZg9r.debug.temp.o
 .comment       0x00000000       0x4a C:\Users\zerog\AppData\Local\Temp\ccEmOf7u.debug.temp.o
 .comment       0x00000000       0x4a C:\Users\zerog\AppData\Local\Temp\cci9Ce5x.debug.temp.o
 .comment       0x00000000       0x4a C:\Users\zerog\AppData\Local\Temp\ccivMN7A.debug.temp.o
 .comment       0x00000000       0x4a C:\Users\zerog\AppData\Local\Temp\cciRVmaE.debug.temp.o
 .comment       0x00000000       0x4a C:\Users\zerog\AppData\Local\Temp\ccYooIzH.debug.temp.o
 .debug_info    0x00000000      0xcf3 C:\Users\zerog\AppData\Local\Temp\ccEWQ3YK.debug.temp.o
 .debug_abbrev  0x00000000      0x278 C:\Users\zerog\AppData\Local\Temp\ccEWQ3YK.debug.temp.o
 .debug_line    0x00000000      0x27f C:\Users\zerog\AppData\Local\Temp\ccEWQ3YK.debug.temp.o
 .debug_str     0x00000000      0x7e9 C:\Users\zerog\AppData\Local\Temp\ccEWQ3YK.debug.temp.o
 .comment       0x00000000       0x4a C:\Users\zerog\AppData\Local\Temp\ccEWQ3YK.debug.temp.o
 .comment       0x00000000       0x4a C:\Users\zerog\AppData\Local\Temp\ccUoz1sO.debug.temp.o
 .debug_info    0x00000000      0xc2a C:\Users\zerog\AppData\Local\Temp\ccaRhZWR.debug.temp.o
 .debug_abbrev  0x00000000      0x278 C:\Users\zerog\AppData\Local\Temp\ccaRhZWR.debug.temp.o
 .debug_line    0x00000000      0x298 C:\Users\zerog\AppData\Local\Temp\ccaRhZWR.debug.temp.o
 .debug_str     0x00000000      0x7d0 C:\Users\zerog\AppData\Local\Temp\ccaRhZWR.debug.temp.o
 .comment       0x00000000       0x4a C:\Users\zerog\AppData\Local\Temp\ccaRhZWR.debug.temp.o
 .comment       0x00000000       0x4a C:\Users\zerog\AppData\Local\Temp\ccKVajfV.debug.temp.o
 .debug_info    0x00000000      0xb02 C:\Users\zerog\AppData\Local\Temp\cck03CxY.debug.temp.o
 .debug_abbrev  0x00000000      0x24d C:\Users\zerog\AppData\Local\Temp\cck03CxY.debug.temp.o
 .debug_line    0x00000000      0x28a C:\Users\zerog\AppData\Local\Temp\cck03CxY.debug.temp.o
 .debug_str     0x00000000      0x745 C:\Users\zerog\AppData\Local\Temp\cck03CxY.debug.temp.o
 .comment       0x00000000       0x4a C:\Users\zerog\AppData\Local\Temp\cck03CxY.debug.temp.o
 .comment       0x00000000       0x4a C:\Users\zerog\AppData\Local\Temp\ccUAJlU1.debug.temp.o
 .comment       0x00000000       0x4a C:\Users\zerog\AppData\Local\Temp\ccubp4g5.debug.temp.o
 .comment       0x00000000       0x4a C:\Users\zerog\AppData\Local\Temp\ccOXoiP7.debug.temp.o
 .comment       0x00000000       0x4a C:\Users\zerog\AppData\Local\Temp\cc8Jowna.debug.temp.o
 .comment       0x00000000       0x4a C:\Users\zerog\AppData\Local\Temp\ccIWTj0c.debug.temp.o
 .comment       0x00000000       0x4a C:\Users\zerog\AppData\Local\Temp\cci9o7Cf.debug.temp.o
 .debug_info    0x00000000       0x79 C:\Users\zerog\AppData\Local\Temp\ccYQeU1h.debug.temp.o
 .debug_abbrev  0x00000000       0x26 C:\Users\zerog\AppData\Local\Temp\ccYQeU1h.debug.temp.o
 .debug_line    0x00000000       0x1e C:\Users\zerog\AppData\Local\Temp\ccYQeU1h.debug.temp.o
 .debug_str     0x00000000      0x1c4 C:\Users\zerog\AppData\Local\Temp\ccYQeU1h.debug.temp.o
 .comment       0x00000000       0x4a C:\Users\zerog\AppData\Local\Temp\ccYQeU1h.debug.temp.o
 .comment       0x00000000       0x4a C:\Users\zerog\AppData\Local\Temp\ccEy4Gqk.debug.temp.o
 .debug_info    0x00000000      0x4d1 C:\Users\zerog\AppData\Local\Temp\cck8fXdn.debug.temp.o
 .debug_abbrev  0x00000000      0x19a C:\Users\zerog\AppData\Local\Temp\cck8fXdn.debug.temp.o
 .debug_line    0x00000000      0x268 C:\Users\zerog\AppData\Local\Temp\cck8fXdn.debug.temp.o
 .debug_str     0x00000000      0x307 C:\Users\zerog\AppData\Local\Temp\cck8fXdn.debug.temp.o
 .comment       0x00000000       0x4a C:\Users\zerog\AppData\Local\Temp\cck8fXdn.debug.temp.o
 .debug_info    0x00000000      0x35a C:\Users\zerog\AppData\Local\Temp\cc0Hrd1p.debug.temp.o
 .debug_abbrev  0x00000000      0x104 C:\Users\zerog\AppData\Local\Temp\cc0Hrd1p.debug.temp.o
 .debug_line    0x00000000      0x1c5 C:\Users\zerog\AppData\Local\Temp\cc0Hrd1p.debug.temp.o
 .debug_str     0x00000000      0x268 C:\Users\zerog\AppData\Local\Temp\cc0Hrd1p.debug.temp.o
 .comment       0x00000000       0x4a C:\Users\zerog\AppData\Local\Temp\cc0Hrd1p.debug.temp.o
 .debug_info    0x00000000      0x2bc C:\Users\zerog\AppData\Local\Temp\ccgaQOSs.debug.temp.o
 .debug_abbrev  0x00000000      0x108 C:\Users\zerog\AppData\Local\Temp\ccgaQOSs.debug.temp.o
 .debug_line    0x00000000      0x1c7 C:\Users\zerog\AppData\Local\Temp\ccgaQOSs.debug.temp.o
 .debug_str     0x00000000      0x244 C:\Users\zerog\AppData\Local\Temp\ccgaQOSs.debug.temp.o
 .comment       0x00000000       0x4a C:\Users\zerog\AppData\Local\Temp\ccgaQOSs.debug.temp.o
 .debug_info    0x00000000      0x3e2 C:\Users\zerog\AppData\Local\Temp\ccwCeqKv.debug.temp.o
 .debug_abbrev  0x00000000      0x125 C:\Users\zerog\AppData\Local\Temp\ccwCeqKv.debug.temp.o
 .debug_line    0x00000000      0x1f7 C:\Users\zerog\AppData\Local\Temp\ccwCeqKv.debug.temp.o
 .debug_str     0x00000000      0x2c2 C:\Users\zerog\AppData\Local\Temp\ccwCeqKv.debug.temp.o
 .comment       0x00000000       0x4a C:\Users\zerog\AppData\Local\Temp\ccwCeqKv.debug.temp.o
 .comment       0x00000000       0x4a C:\Users\zerog\AppData\Local\Temp\ccM4C1By.debug.temp.o
 .comment       0x00000000       0x4a C:\Users\zerog\AppData\Local\Temp\ccSvdKiB.debug.temp.o
 .comment       0x00000000       0x4a C:\Users\zerog\AppData\Local\Temp\ccYWNsZD.debug.temp.o
 .comment       0x00000000       0x4a C:\Users\zerog\AppData\Local\Temp\cc4nobGG.debug.temp.o
 .comment       0x00000000       0x4a C:\Users\zerog\AppData\Local\Temp\ccIK33rJ.debug.temp.o
 .comment       0x00000000       0x4a C:\Users\zerog\AppData\Local\Temp\ccm7IWdM.debug.temp.o
 .comment       0x00000000       0x4a C:\Users\zerog\AppData\Local\Temp\ccIs02TS.debug.temp.o
 .text          0x00000000        0x0 c:/chibistudio/tools/gnu tools arm embedded/10.3 2021.07/bin/../lib/gcc/arm-none-eabi/10.3.1/../../../../arm-none-eabi/lib/thumb/v7e-m/nofp\libm.a(lib_a-s_round.o)
 .data          0x00000000        0x0 c:/chibistudio/tools/gnu tools arm embedded/10.3 2021.07/bin/../lib/gcc/arm-none-eabi/10.3.1/../../../../arm-none-eabi/lib/thumb/v7e-m/nofp\libm.a(lib_a-s_round.o)
 .bss           0x00000000        0x0 c:/chibistudio/tools/gnu tools arm embedded/10.3 2021.07/bin/../lib/gcc/arm-none-eabi/10.3.1/../../../../arm-none-eabi/lib/thumb/v7e-m/nofp\libm.a(lib_a-s_round.o)
 .text          0x00000000        0x0 c:/chibistudio/tools/gnu tools arm embedded/10.3 2021.07/bin/../lib/gcc/arm-none-eabi/10.3.1/../../../../arm-none-eabi/lib/thumb/v7e-m/nofp\libm.a(lib_a-w_exp2.o)
 .data          0x00000000        0x0 c:/chibistudio/tools/gnu tools arm embedded/10.3 2021.07/bin/../lib/gcc/arm-none-eabi/10.3.1/../../../../arm-none-eabi/lib/thumb/v7e-m/nofp\libm.a(lib_a-w_exp2.o)
 .bss           0x00000000        0x0 c:/chibistudio/tools/gnu tools arm embedded/10.3 2021.07/bin/../lib/gcc/arm-none-eabi/10.3.1/../../../../arm-none-eabi/lib/thumb/v7e-m/nofp\libm.a(lib_a-w_exp2.o)
 .text          0x00000000        0x0 c:/chibistudio/tools/gnu tools arm embedded/10.3 2021.07/bin/../lib/gcc/arm-none-eabi/10.3.1/../../../../arm-none-eabi/lib/thumb/v7e-m/nofp\libm.a(lib_a-w_log.o)
 .data          0x00000000        0x0 c:/chibistudio/tools/gnu tools arm embedded/10.3 2021.07/bin/../lib/gcc/arm-none-eabi/10.3.1/../../../../arm-none-eabi/lib/thumb/v7e-m/nofp\libm.a(lib_a-w_log.o)
 .bss           0x00000000        0x0 c:/chibistudio/tools/gnu tools arm embedded/10.3 2021.07/bin/../lib/gcc/arm-none-eabi/10.3.1/../../../../arm-none-eabi/lib/thumb/v7e-m/nofp\libm.a(lib_a-w_log.o)
 .text          0x00000000        0x0 c:/chibistudio/tools/gnu tools arm embedded/10.3 2021.07/bin/../lib/gcc/arm-none-eabi/10.3.1/../../../../arm-none-eabi/lib/thumb/v7e-m/nofp\libm.a(lib_a-w_pow.o)
 .data          0x00000000        0x0 c:/chibistudio/tools/gnu tools arm embedded/10.3 2021.07/bin/../lib/gcc/arm-none-eabi/10.3.1/../../../../arm-none-eabi/lib/thumb/v7e-m/nofp\libm.a(lib_a-w_pow.o)
 .bss           0x00000000        0x0 c:/chibistudio/tools/gnu tools arm embedded/10.3 2021.07/bin/../lib/gcc/arm-none-eabi/10.3.1/../../../../arm-none-eabi/lib/thumb/v7e-m/nofp\libm.a(lib_a-w_pow.o)
 .text          0x00000000        0x0 c:/chibistudio/tools/gnu tools arm embedded/10.3 2021.07/bin/../lib/gcc/arm-none-eabi/10.3.1/../../../../arm-none-eabi/lib/thumb/v7e-m/nofp\libm.a(lib_a-e_log.o)
 .data          0x00000000        0x0 c:/chibistudio/tools/gnu tools arm embedded/10.3 2021.07/bin/../lib/gcc/arm-none-eabi/10.3.1/../../../../arm-none-eabi/lib/thumb/v7e-m/nofp\libm.a(lib_a-e_log.o)
 .bss           0x00000000        0x0 c:/chibistudio/tools/gnu tools arm embedded/10.3 2021.07/bin/../lib/gcc/arm-none-eabi/10.3.1/../../../../arm-none-eabi/lib/thumb/v7e-m/nofp\libm.a(lib_a-e_log.o)
 .text          0x00000000        0x0 c:/chibistudio/tools/gnu tools arm embedded/10.3 2021.07/bin/../lib/gcc/arm-none-eabi/10.3.1/../../../../arm-none-eabi/lib/thumb/v7e-m/nofp\libm.a(lib_a-e_pow.o)
 .data          0x00000000        0x0 c:/chibistudio/tools/gnu tools arm embedded/10.3 2021.07/bin/../lib/gcc/arm-none-eabi/10.3.1/../../../../arm-none-eabi/lib/thumb/v7e-m/nofp\libm.a(lib_a-e_pow.o)
 .bss           0x00000000        0x0 c:/chibistudio/tools/gnu tools arm embedded/10.3 2021.07/bin/../lib/gcc/arm-none-eabi/10.3.1/../../../../arm-none-eabi/lib/thumb/v7e-m/nofp\libm.a(lib_a-e_pow.o)
 .text          0x00000000        0x0 c:/chibistudio/tools/gnu tools arm embedded/10.3 2021.07/bin/../lib/gcc/arm-none-eabi/10.3.1/../../../../arm-none-eabi/lib/thumb/v7e-m/nofp\libm.a(lib_a-e_sqrt.o)
 .data          0x00000000        0x0 c:/chibistudio/tools/gnu tools arm embedded/10.3 2021.07/bin/../lib/gcc/arm-none-eabi/10.3.1/../../../../arm-none-eabi/lib/thumb/v7e-m/nofp\libm.a(lib_a-e_sqrt.o)
 .bss           0x00000000        0x0 c:/chibistudio/tools/gnu tools arm embedded/10.3 2021.07/bin/../lib/gcc/arm-none-eabi/10.3.1/../../../../arm-none-eabi/lib/thumb/v7e-m/nofp\libm.a(lib_a-e_sqrt.o)
 .text          0x00000000        0x0 c:/chibistudio/tools/gnu tools arm embedded/10.3 2021.07/bin/../lib/gcc/arm-none-eabi/10.3.1/../../../../arm-none-eabi/lib/thumb/v7e-m/nofp\libm.a(lib_a-math_err.o)
 .data          0x00000000        0x0 c:/chibistudio/tools/gnu tools arm embedded/10.3 2021.07/bin/../lib/gcc/arm-none-eabi/10.3.1/../../../../arm-none-eabi/lib/thumb/v7e-m/nofp\libm.a(lib_a-math_err.o)
 .bss           0x00000000        0x0 c:/chibistudio/tools/gnu tools arm embedded/10.3 2021.07/bin/../lib/gcc/arm-none-eabi/10.3.1/../../../../arm-none-eabi/lib/thumb/v7e-m/nofp\libm.a(lib_a-math_err.o)
 .text.__math_may_uflow
                0x00000000        0xc c:/chibistudio/tools/gnu tools arm embedded/10.3 2021.07/bin/../lib/gcc/arm-none-eabi/10.3.1/../../../../arm-none-eabi/lib/thumb/v7e-m/nofp\libm.a(lib_a-math_err.o)
 .text.__math_divzero
                0x00000000       0x34 c:/chibistudio/tools/gnu tools arm embedded/10.3 2021.07/bin/../lib/gcc/arm-none-eabi/10.3.1/../../../../arm-none-eabi/lib/thumb/v7e-m/nofp\libm.a(lib_a-math_err.o)
 .text.__math_invalid
                0x00000000       0x3c c:/chibistudio/tools/gnu tools arm embedded/10.3 2021.07/bin/../lib/gcc/arm-none-eabi/10.3.1/../../../../arm-none-eabi/lib/thumb/v7e-m/nofp\libm.a(lib_a-math_err.o)
 .text.__math_check_uflow
                0x00000000       0x24 c:/chibistudio/tools/gnu tools arm embedded/10.3 2021.07/bin/../lib/gcc/arm-none-eabi/10.3.1/../../../../arm-none-eabi/lib/thumb/v7e-m/nofp\libm.a(lib_a-math_err.o)
 .text.__math_check_oflow
                0x00000000       0x44 c:/chibistudio/tools/gnu tools arm embedded/10.3 2021.07/bin/../lib/gcc/arm-none-eabi/10.3.1/../../../../arm-none-eabi/lib/thumb/v7e-m/nofp\libm.a(lib_a-math_err.o)
 .text          0x00000000        0x0 c:/chibistudio/tools/gnu tools arm embedded/10.3 2021.07/bin/../lib/gcc/arm-none-eabi/10.3.1/../../../../arm-none-eabi/lib/thumb/v7e-m/nofp\libm.a(lib_a-s_fabs.o)
 .data          0x00000000        0x0 c:/chibistudio/tools/gnu tools arm embedded/10.3 2021.07/bin/../lib/gcc/arm-none-eabi/10.3.1/../../../../arm-none-eabi/lib/thumb/v7e-m/nofp\libm.a(lib_a-s_fabs.o)
 .bss           0x00000000        0x0 c:/chibistudio/tools/gnu tools arm embedded/10.3 2021.07/bin/../lib/gcc/arm-none-eabi/10.3.1/../../../../arm-none-eabi/lib/thumb/v7e-m/nofp\libm.a(lib_a-s_fabs.o)
 .text          0x00000000        0x0 c:/chibistudio/tools/gnu tools arm embedded/10.3 2021.07/bin/../lib/gcc/arm-none-eabi/10.3.1/../../../../arm-none-eabi/lib/thumb/v7e-m/nofp\libm.a(lib_a-s_finite.o)
 .data          0x00000000        0x0 c:/chibistudio/tools/gnu tools arm embedded/10.3 2021.07/bin/../lib/gcc/arm-none-eabi/10.3.1/../../../../arm-none-eabi/lib/thumb/v7e-m/nofp\libm.a(lib_a-s_finite.o)
 .bss           0x00000000        0x0 c:/chibistudio/tools/gnu tools arm embedded/10.3 2021.07/bin/../lib/gcc/arm-none-eabi/10.3.1/../../../../arm-none-eabi/lib/thumb/v7e-m/nofp\libm.a(lib_a-s_finite.o)
 .text          0x00000000        0x0 c:/chibistudio/tools/gnu tools arm embedded/10.3 2021.07/bin/../lib/gcc/arm-none-eabi/10.3.1/../../../../arm-none-eabi/lib/thumb/v7e-m/nofp\libm.a(lib_a-s_nan.o)
 .data          0x00000000        0x0 c:/chibistudio/tools/gnu tools arm embedded/10.3 2021.07/bin/../lib/gcc/arm-none-eabi/10.3.1/../../../../arm-none-eabi/lib/thumb/v7e-m/nofp\libm.a(lib_a-s_nan.o)
 .bss           0x00000000        0x0 c:/chibistudio/tools/gnu tools arm embedded/10.3 2021.07/bin/../lib/gcc/arm-none-eabi/10.3.1/../../../../arm-none-eabi/lib/thumb/v7e-m/nofp\libm.a(lib_a-s_nan.o)
 .text          0x00000000        0x0 c:/chibistudio/tools/gnu tools arm embedded/10.3 2021.07/bin/../lib/gcc/arm-none-eabi/10.3.1/../../../../arm-none-eabi/lib/thumb/v7e-m/nofp\libm.a(lib_a-s_scalbn.o)
 .data          0x00000000        0x0 c:/chibistudio/tools/gnu tools arm embedded/10.3 2021.07/bin/../lib/gcc/arm-none-eabi/10.3.1/../../../../arm-none-eabi/lib/thumb/v7e-m/nofp\libm.a(lib_a-s_scalbn.o)
 .bss           0x00000000        0x0 c:/chibistudio/tools/gnu tools arm embedded/10.3 2021.07/bin/../lib/gcc/arm-none-eabi/10.3.1/../../../../arm-none-eabi/lib/thumb/v7e-m/nofp\libm.a(lib_a-s_scalbn.o)
 .text          0x00000000      0x254 c:/chibistudio/tools/gnu tools arm embedded/10.3 2021.07/bin/../lib/gcc/arm-none-eabi/10.3.1/thumb/v7e-m/nofp\libgcc.a(_arm_muldf3.o)
 .data          0x00000000        0x0 c:/chibistudio/tools/gnu tools arm embedded/10.3 2021.07/bin/../lib/gcc/arm-none-eabi/10.3.1/thumb/v7e-m/nofp\libgcc.a(_arm_muldf3.o)
 .bss           0x00000000        0x0 c:/chibistudio/tools/gnu tools arm embedded/10.3 2021.07/bin/../lib/gcc/arm-none-eabi/10.3.1/thumb/v7e-m/nofp\libgcc.a(_arm_muldf3.o)
 .debug_frame   0x00000000       0x30 c:/chibistudio/tools/gnu tools arm embedded/10.3 2021.07/bin/../lib/gcc/arm-none-eabi/10.3.1/thumb/v7e-m/nofp\libgcc.a(_arm_muldf3.o)
 .ARM.attributes
                0x00000000       0x1e c:/chibistudio/tools/gnu tools arm embedded/10.3 2021.07/bin/../lib/gcc/arm-none-eabi/10.3.1/thumb/v7e-m/nofp\libgcc.a(_arm_muldf3.o)
 .data          0x00000000        0x0 c:/chibistudio/tools/gnu tools arm embedded/10.3 2021.07/bin/../lib/gcc/arm-none-eabi/10.3.1/thumb/v7e-m/nofp\libgcc.a(_arm_addsubdf3.o)
 .bss           0x00000000        0x0 c:/chibistudio/tools/gnu tools arm embedded/10.3 2021.07/bin/../lib/gcc/arm-none-eabi/10.3.1/thumb/v7e-m/nofp\libgcc.a(_arm_addsubdf3.o)
 .data          0x00000000        0x0 c:/chibistudio/tools/gnu tools arm embedded/10.3 2021.07/bin/../lib/gcc/arm-none-eabi/10.3.1/thumb/v7e-m/nofp\libgcc.a(_arm_muldivdf3.o)
 .bss           0x00000000        0x0 c:/chibistudio/tools/gnu tools arm embedded/10.3 2021.07/bin/../lib/gcc/arm-none-eabi/10.3.1/thumb/v7e-m/nofp\libgcc.a(_arm_muldivdf3.o)
 .data          0x00000000        0x0 c:/chibistudio/tools/gnu tools arm embedded/10.3 2021.07/bin/../lib/gcc/arm-none-eabi/10.3.1/thumb/v7e-m/nofp\libgcc.a(_arm_cmpdf2.o)
 .bss           0x00000000        0x0 c:/chibistudio/tools/gnu tools arm embedded/10.3 2021.07/bin/../lib/gcc/arm-none-eabi/10.3.1/thumb/v7e-m/nofp\libgcc.a(_arm_cmpdf2.o)
 .data          0x00000000        0x0 c:/chibistudio/tools/gnu tools arm embedded/10.3 2021.07/bin/../lib/gcc/arm-none-eabi/10.3.1/thumb/v7e-m/nofp\libgcc.a(_arm_unorddf2.o)
 .bss           0x00000000        0x0 c:/chibistudio/tools/gnu tools arm embedded/10.3 2021.07/bin/../lib/gcc/arm-none-eabi/10.3.1/thumb/v7e-m/nofp\libgcc.a(_arm_unorddf2.o)
 .data          0x00000000        0x0 c:/chibistudio/tools/gnu tools arm embedded/10.3 2021.07/bin/../lib/gcc/arm-none-eabi/10.3.1/thumb/v7e-m/nofp\libgcc.a(_arm_mulsf3.o)
 .bss           0x00000000        0x0 c:/chibistudio/tools/gnu tools arm embedded/10.3 2021.07/bin/../lib/gcc/arm-none-eabi/10.3.1/thumb/v7e-m/nofp\libgcc.a(_arm_mulsf3.o)
 .data          0x00000000        0x0 c:/chibistudio/tools/gnu tools arm embedded/10.3 2021.07/bin/../lib/gcc/arm-none-eabi/10.3.1/thumb/v7e-m/nofp\libgcc.a(_arm_fixdfsi.o)
 .bss           0x00000000        0x0 c:/chibistudio/tools/gnu tools arm embedded/10.3 2021.07/bin/../lib/gcc/arm-none-eabi/10.3.1/thumb/v7e-m/nofp\libgcc.a(_arm_fixdfsi.o)
 .data          0x00000000        0x0 c:/chibistudio/tools/gnu tools arm embedded/10.3 2021.07/bin/../lib/gcc/arm-none-eabi/10.3.1/thumb/v7e-m/nofp\libgcc.a(_arm_fixsfsi.o)
 .bss           0x00000000        0x0 c:/chibistudio/tools/gnu tools arm embedded/10.3 2021.07/bin/../lib/gcc/arm-none-eabi/10.3.1/thumb/v7e-m/nofp\libgcc.a(_arm_fixsfsi.o)
 .data          0x00000000        0x0 c:/chibistudio/tools/gnu tools arm embedded/10.3 2021.07/bin/../lib/gcc/arm-none-eabi/10.3.1/thumb/v7e-m/nofp\libgcc.a(_arm_fixunssfsi.o)
 .bss           0x00000000        0x0 c:/chibistudio/tools/gnu tools arm embedded/10.3 2021.07/bin/../lib/gcc/arm-none-eabi/10.3.1/thumb/v7e-m/nofp\libgcc.a(_arm_fixunssfsi.o)
 .text          0x00000000       0xa0 c:/chibistudio/tools/gnu tools arm embedded/10.3 2021.07/bin/../lib/gcc/arm-none-eabi/10.3.1/thumb/v7e-m/nofp\libgcc.a(_aeabi_ldivmod.o)
 .data          0x00000000        0x0 c:/chibistudio/tools/gnu tools arm embedded/10.3 2021.07/bin/../lib/gcc/arm-none-eabi/10.3.1/thumb/v7e-m/nofp\libgcc.a(_aeabi_ldivmod.o)
 .bss           0x00000000        0x0 c:/chibistudio/tools/gnu tools arm embedded/10.3 2021.07/bin/../lib/gcc/arm-none-eabi/10.3.1/thumb/v7e-m/nofp\libgcc.a(_aeabi_ldivmod.o)
 .debug_frame   0x00000000       0x44 c:/chibistudio/tools/gnu tools arm embedded/10.3 2021.07/bin/../lib/gcc/arm-none-eabi/10.3.1/thumb/v7e-m/nofp\libgcc.a(_aeabi_ldivmod.o)
 .ARM.attributes
                0x00000000       0x1e c:/chibistudio/tools/gnu tools arm embedded/10.3 2021.07/bin/../lib/gcc/arm-none-eabi/10.3.1/thumb/v7e-m/nofp\libgcc.a(_aeabi_ldivmod.o)
 .text          0x00000000        0x0 c:/chibistudio/tools/gnu tools arm embedded/10.3 2021.07/bin/../lib/gcc/arm-none-eabi/10.3.1/../../../../arm-none-eabi/lib/thumb/v7e-m/nofp\libg.a(lib_a-ctype_.o)
 .data          0x00000000        0x0 c:/chibistudio/tools/gnu tools arm embedded/10.3 2021.07/bin/../lib/gcc/arm-none-eabi/10.3.1/../../../../arm-none-eabi/lib/thumb/v7e-m/nofp\libg.a(lib_a-ctype_.o)
 .bss           0x00000000        0x0 c:/chibistudio/tools/gnu tools arm embedded/10.3 2021.07/bin/../lib/gcc/arm-none-eabi/10.3.1/../../../../arm-none-eabi/lib/thumb/v7e-m/nofp\libg.a(lib_a-ctype_.o)
 .text          0x00000000        0x0 c:/chibistudio/tools/gnu tools arm embedded/10.3 2021.07/bin/../lib/gcc/arm-none-eabi/10.3.1/../../../../arm-none-eabi/lib/thumb/v7e-m/nofp\libg.a(lib_a-errno.o)
 .data          0x00000000        0x0 c:/chibistudio/tools/gnu tools arm embedded/10.3 2021.07/bin/../lib/gcc/arm-none-eabi/10.3.1/../../../../arm-none-eabi/lib/thumb/v7e-m/nofp\libg.a(lib_a-errno.o)
 .bss           0x00000000        0x0 c:/chibistudio/tools/gnu tools arm embedded/10.3 2021.07/bin/../lib/gcc/arm-none-eabi/10.3.1/../../../../arm-none-eabi/lib/thumb/v7e-m/nofp\libg.a(lib_a-errno.o)
 .text          0x00000000        0x0 c:/chibistudio/tools/gnu tools arm embedded/10.3 2021.07/bin/../lib/gcc/arm-none-eabi/10.3.1/../../../../arm-none-eabi/lib/thumb/v7e-m/nofp\libg.a(lib_a-impure.o)
 .data          0x00000000        0x0 c:/chibistudio/tools/gnu tools arm embedded/10.3 2021.07/bin/../lib/gcc/arm-none-eabi/10.3.1/../../../../arm-none-eabi/lib/thumb/v7e-m/nofp\libg.a(lib_a-impure.o)
 .bss           0x00000000        0x0 c:/chibistudio/tools/gnu tools arm embedded/10.3 2021.07/bin/../lib/gcc/arm-none-eabi/10.3.1/../../../../arm-none-eabi/lib/thumb/v7e-m/nofp\libg.a(lib_a-impure.o)
 .rodata._global_impure_ptr
                0x00000000        0x4 c:/chibistudio/tools/gnu tools arm embedded/10.3 2021.07/bin/../lib/gcc/arm-none-eabi/10.3.1/../../../../arm-none-eabi/lib/thumb/v7e-m/nofp\libg.a(lib_a-impure.o)
 .text          0x00000000        0x0 c:/chibistudio/tools/gnu tools arm embedded/10.3 2021.07/bin/../lib/gcc/arm-none-eabi/10.3.1/../../../../arm-none-eabi/lib/thumb/v7e-m/nofp\libg.a(lib_a-strtod.o)
 .data          0x00000000        0x0 c:/chibistudio/tools/gnu tools arm embedded/10.3 2021.07/bin/../lib/gcc/arm-none-eabi/10.3.1/../../../../arm-none-eabi/lib/thumb/v7e-m/nofp\libg.a(lib_a-strtod.o)
 .bss           0x00000000        0x0 c:/chibistudio/tools/gnu tools arm embedded/10.3 2021.07/bin/../lib/gcc/arm-none-eabi/10.3.1/../../../../arm-none-eabi/lib/thumb/v7e-m/nofp\libg.a(lib_a-strtod.o)
 .text._strtod_r
                0x00000000        0xc c:/chibistudio/tools/gnu tools arm embedded/10.3 2021.07/bin/../lib/gcc/arm-none-eabi/10.3.1/../../../../arm-none-eabi/lib/thumb/v7e-m/nofp\libg.a(lib_a-strtod.o)
 .text.strtod_l
                0x00000000       0x18 c:/chibistudio/tools/gnu tools arm embedded/10.3 2021.07/bin/../lib/gcc/arm-none-eabi/10.3.1/../../../../arm-none-eabi/lib/thumb/v7e-m/nofp\libg.a(lib_a-strtod.o)
 .text.strtod   0x00000000       0x1c c:/chibistudio/tools/gnu tools arm embedded/10.3 2021.07/bin/../lib/gcc/arm-none-eabi/10.3.1/../../../../arm-none-eabi/lib/thumb/v7e-m/nofp\libg.a(lib_a-strtod.o)
 .text.strtof_l
                0x00000000       0x9c c:/chibistudio/tools/gnu tools arm embedded/10.3 2021.07/bin/../lib/gcc/arm-none-eabi/10.3.1/../../../../arm-none-eabi/lib/thumb/v7e-m/nofp\libg.a(lib_a-strtod.o)
 .text          0x00000000        0x0 c:/chibistudio/tools/gnu tools arm embedded/10.3 2021.07/bin/../lib/gcc/arm-none-eabi/10.3.1/../../../../arm-none-eabi/lib/thumb/v7e-m/nofp\libg.a(lib_a-gdtoa-gethex.o)
 .data          0x00000000        0x0 c:/chibistudio/tools/gnu tools arm embedded/10.3 2021.07/bin/../lib/gcc/arm-none-eabi/10.3.1/../../../../arm-none-eabi/lib/thumb/v7e-m/nofp\libg.a(lib_a-gdtoa-gethex.o)
 .bss           0x00000000        0x0 c:/chibistudio/tools/gnu tools arm embedded/10.3 2021.07/bin/../lib/gcc/arm-none-eabi/10.3.1/../../../../arm-none-eabi/lib/thumb/v7e-m/nofp\libg.a(lib_a-gdtoa-gethex.o)
 .text          0x00000000        0x0 c:/chibistudio/tools/gnu tools arm embedded/10.3 2021.07/bin/../lib/gcc/arm-none-eabi/10.3.1/../../../../arm-none-eabi/lib/thumb/v7e-m/nofp\libg.a(lib_a-gdtoa-hexnan.o)
 .data          0x00000000        0x0 c:/chibistudio/tools/gnu tools arm embedded/10.3 2021.07/bin/../lib/gcc/arm-none-eabi/10.3.1/../../../../arm-none-eabi/lib/thumb/v7e-m/nofp\libg.a(lib_a-gdtoa-hexnan.o)
 .bss           0x00000000        0x0 c:/chibistudio/tools/gnu tools arm embedded/10.3 2021.07/bin/../lib/gcc/arm-none-eabi/10.3.1/../../../../arm-none-eabi/lib/thumb/v7e-m/nofp\libg.a(lib_a-gdtoa-hexnan.o)
 .text          0x00000000        0x0 c:/chibistudio/tools/gnu tools arm embedded/10.3 2021.07/bin/../lib/gcc/arm-none-eabi/10.3.1/../../../../arm-none-eabi/lib/thumb/v7e-m/nofp\libg.a(lib_a-lnumeric.o)
 .data          0x00000000        0x0 c:/chibistudio/tools/gnu tools arm embedded/10.3 2021.07/bin/../lib/gcc/arm-none-eabi/10.3.1/../../../../arm-none-eabi/lib/thumb/v7e-m/nofp\libg.a(lib_a-lnumeric.o)
 .bss           0x00000000        0x0 c:/chibistudio/tools/gnu tools arm embedded/10.3 2021.07/bin/../lib/gcc/arm-none-eabi/10.3.1/../../../../arm-none-eabi/lib/thumb/v7e-m/nofp\libg.a(lib_a-lnumeric.o)
 .text.__numeric_load_locale
                0x00000000        0x4 c:/chibistudio/tools/gnu tools arm embedded/10.3 2021.07/bin/../lib/gcc/arm-none-eabi/10.3.1/../../../../arm-none-eabi/lib/thumb/v7e-m/nofp\libg.a(lib_a-lnumeric.o)
 .text          0x00000000        0x0 c:/chibistudio/tools/gnu tools arm embedded/10.3 2021.07/bin/../lib/gcc/arm-none-eabi/10.3.1/../../../../arm-none-eabi/lib/thumb/v7e-m/nofp\libg.a(lib_a-locale.o)
 .data          0x00000000        0x0 c:/chibistudio/tools/gnu tools arm embedded/10.3 2021.07/bin/../lib/gcc/arm-none-eabi/10.3.1/../../../../arm-none-eabi/lib/thumb/v7e-m/nofp\libg.a(lib_a-locale.o)
 .bss           0x00000000        0x0 c:/chibistudio/tools/gnu tools arm embedded/10.3 2021.07/bin/../lib/gcc/arm-none-eabi/10.3.1/../../../../arm-none-eabi/lib/thumb/v7e-m/nofp\libg.a(lib_a-locale.o)
 .text._setlocale_r
                0x00000000       0x40 c:/chibistudio/tools/gnu tools arm embedded/10.3 2021.07/bin/../lib/gcc/arm-none-eabi/10.3.1/../../../../arm-none-eabi/lib/thumb/v7e-m/nofp\libg.a(lib_a-locale.o)
 .text.setlocale
                0x00000000       0x40 c:/chibistudio/tools/gnu tools arm embedded/10.3 2021.07/bin/../lib/gcc/arm-none-eabi/10.3.1/../../../../arm-none-eabi/lib/thumb/v7e-m/nofp\libg.a(lib_a-locale.o)
 .bss._PathLocale
                0x00000000        0x4 c:/chibistudio/tools/gnu tools arm embedded/10.3 2021.07/bin/../lib/gcc/arm-none-eabi/10.3.1/../../../../arm-none-eabi/lib/thumb/v7e-m/nofp\libg.a(lib_a-locale.o)
 .text          0x00000000        0x0 c:/chibistudio/tools/gnu tools arm embedded/10.3 2021.07/bin/../lib/gcc/arm-none-eabi/10.3.1/../../../../arm-none-eabi/lib/thumb/v7e-m/nofp\libg.a(lib_a-mbtowc_r.o)
 .data          0x00000000        0x0 c:/chibistudio/tools/gnu tools arm embedded/10.3 2021.07/bin/../lib/gcc/arm-none-eabi/10.3.1/../../../../arm-none-eabi/lib/thumb/v7e-m/nofp\libg.a(lib_a-mbtowc_r.o)
 .bss           0x00000000        0x0 c:/chibistudio/tools/gnu tools arm embedded/10.3 2021.07/bin/../lib/gcc/arm-none-eabi/10.3.1/../../../../arm-none-eabi/lib/thumb/v7e-m/nofp\libg.a(lib_a-mbtowc_r.o)
 .text._mbtowc_r
                0x00000000       0x14 c:/chibistudio/tools/gnu tools arm embedded/10.3 2021.07/bin/../lib/gcc/arm-none-eabi/10.3.1/../../../../arm-none-eabi/lib/thumb/v7e-m/nofp\libg.a(lib_a-mbtowc_r.o)
 .data          0x00000000        0x0 c:/chibistudio/tools/gnu tools arm embedded/10.3 2021.07/bin/../lib/gcc/arm-none-eabi/10.3.1/../../../../arm-none-eabi/lib/thumb/v7e-m/nofp\libg.a(lib_a-memcpy.o)
 .bss           0x00000000        0x0 c:/chibistudio/tools/gnu tools arm embedded/10.3 2021.07/bin/../lib/gcc/arm-none-eabi/10.3.1/../../../../arm-none-eabi/lib/thumb/v7e-m/nofp\libg.a(lib_a-memcpy.o)
 .text          0x00000000        0x0 c:/chibistudio/tools/gnu tools arm embedded/10.3 2021.07/bin/../lib/gcc/arm-none-eabi/10.3.1/../../../../arm-none-eabi/lib/thumb/v7e-m/nofp\libg.a(lib_a-mprec.o)
 .data          0x00000000        0x0 c:/chibistudio/tools/gnu tools arm embedded/10.3 2021.07/bin/../lib/gcc/arm-none-eabi/10.3.1/../../../../arm-none-eabi/lib/thumb/v7e-m/nofp\libg.a(lib_a-mprec.o)
 .bss           0x00000000        0x0 c:/chibistudio/tools/gnu tools arm embedded/10.3 2021.07/bin/../lib/gcc/arm-none-eabi/10.3.1/../../../../arm-none-eabi/lib/thumb/v7e-m/nofp\libg.a(lib_a-mprec.o)
 .text._mprec_log10
                0x00000000       0x38 c:/chibistudio/tools/gnu tools arm embedded/10.3 2021.07/bin/../lib/gcc/arm-none-eabi/10.3.1/../../../../arm-none-eabi/lib/thumb/v7e-m/nofp\libg.a(lib_a-mprec.o)
 .rodata.__mprec_tinytens
                0x00000000       0x28 c:/chibistudio/tools/gnu tools arm embedded/10.3 2021.07/bin/../lib/gcc/arm-none-eabi/10.3.1/../../../../arm-none-eabi/lib/thumb/v7e-m/nofp\libg.a(lib_a-mprec.o)
 .text          0x00000000        0x0 c:/chibistudio/tools/gnu tools arm embedded/10.3 2021.07/bin/../lib/gcc/arm-none-eabi/10.3.1/../../../../arm-none-eabi/lib/thumb/v7e-m/nofp\libg.a(lib_a-sf_nan.o)
 .data          0x00000000        0x0 c:/chibistudio/tools/gnu tools arm embedded/10.3 2021.07/bin/../lib/gcc/arm-none-eabi/10.3.1/../../../../arm-none-eabi/lib/thumb/v7e-m/nofp\libg.a(lib_a-sf_nan.o)
 .bss           0x00000000        0x0 c:/chibistudio/tools/gnu tools arm embedded/10.3 2021.07/bin/../lib/gcc/arm-none-eabi/10.3.1/../../../../arm-none-eabi/lib/thumb/v7e-m/nofp\libg.a(lib_a-sf_nan.o)
 .data          0x00000000        0x0 c:/chibistudio/tools/gnu tools arm embedded/10.3 2021.07/bin/../lib/gcc/arm-none-eabi/10.3.1/../../../../arm-none-eabi/lib/thumb/v7e-m/nofp\libg.a(lib_a-strcmp.o)
 .bss           0x00000000        0x0 c:/chibistudio/tools/gnu tools arm embedded/10.3 2021.07/bin/../lib/gcc/arm-none-eabi/10.3.1/../../../../arm-none-eabi/lib/thumb/v7e-m/nofp\libg.a(lib_a-strcmp.o)
 .data          0x00000000        0x0 c:/chibistudio/tools/gnu tools arm embedded/10.3 2021.07/bin/../lib/gcc/arm-none-eabi/10.3.1/../../../../arm-none-eabi/lib/thumb/v7e-m/nofp\libg.a(lib_a-strlen.o)
 .bss           0x00000000        0x0 c:/chibistudio/tools/gnu tools arm embedded/10.3 2021.07/bin/../lib/gcc/arm-none-eabi/10.3.1/../../../../arm-none-eabi/lib/thumb/v7e-m/nofp\libg.a(lib_a-strlen.o)
 .text          0x00000000        0x0 c:/chibistudio/tools/gnu tools arm embedded/10.3 2021.07/bin/../lib/gcc/arm-none-eabi/10.3.1/../../../../arm-none-eabi/lib/thumb/v7e-m/nofp\libg.a(lib_a-strncmp.o)
 .data          0x00000000        0x0 c:/chibistudio/tools/gnu tools arm embedded/10.3 2021.07/bin/../lib/gcc/arm-none-eabi/10.3.1/../../../../arm-none-eabi/lib/thumb/v7e-m/nofp\libg.a(lib_a-strncmp.o)
 .bss           0x00000000        0x0 c:/chibistudio/tools/gnu tools arm embedded/10.3 2021.07/bin/../lib/gcc/arm-none-eabi/10.3.1/../../../../arm-none-eabi/lib/thumb/v7e-m/nofp\libg.a(lib_a-strncmp.o)
 .text          0x00000000        0x0 c:/chibistudio/tools/gnu tools arm embedded/10.3 2021.07/bin/../lib/gcc/arm-none-eabi/10.3.1/../../../../arm-none-eabi/lib/thumb/v7e-m/nofp\libg.a(lib_a-wctomb_r.o)
 .data          0x00000000        0x0 c:/chibistudio/tools/gnu tools arm embedded/10.3 2021.07/bin/../lib/gcc/arm-none-eabi/10.3.1/../../../../arm-none-eabi/lib/thumb/v7e-m/nofp\libg.a(lib_a-wctomb_r.o)
 .bss           0x00000000        0x0 c:/chibistudio/tools/gnu tools arm embedded/10.3 2021.07/bin/../lib/gcc/arm-none-eabi/10.3.1/../../../../arm-none-eabi/lib/thumb/v7e-m/nofp\libg.a(lib_a-wctomb_r.o)
 .text._wctomb_r
                0x00000000       0x14 c:/chibistudio/tools/gnu tools arm embedded/10.3 2021.07/bin/../lib/gcc/arm-none-eabi/10.3.1/../../../../arm-none-eabi/lib/thumb/v7e-m/nofp\libg.a(lib_a-wctomb_r.o)
 .text          0x00000000        0x0 c:/chibistudio/tools/gnu tools arm embedded/10.3 2021.07/bin/../lib/gcc/arm-none-eabi/10.3.1/../../../../arm-none-eabi/lib/thumb/v7e-m/nofp\libg.a(lib_a-assert.o)
 .data          0x00000000        0x0 c:/chibistudio/tools/gnu tools arm embedded/10.3 2021.07/bin/../lib/gcc/arm-none-eabi/10.3.1/../../../../arm-none-eabi/lib/thumb/v7e-m/nofp\libg.a(lib_a-assert.o)
 .bss           0x00000000        0x0 c:/chibistudio/tools/gnu tools arm embedded/10.3 2021.07/bin/../lib/gcc/arm-none-eabi/10.3.1/../../../../arm-none-eabi/lib/thumb/v7e-m/nofp\libg.a(lib_a-assert.o)
 .text.__assert
                0x00000000        0xc c:/chibistudio/tools/gnu tools arm embedded/10.3 2021.07/bin/../lib/gcc/arm-none-eabi/10.3.1/../../../../arm-none-eabi/lib/thumb/v7e-m/nofp\libg.a(lib_a-assert.o)
 .text          0x00000000        0x0 c:/chibistudio/tools/gnu tools arm embedded/10.3 2021.07/bin/../lib/gcc/arm-none-eabi/10.3.1/../../../../arm-none-eabi/lib/thumb/v7e-m/nofp\libg.a(lib_a-callocr.o)
 .data          0x00000000        0x0 c:/chibistudio/tools/gnu tools arm embedded/10.3 2021.07/bin/../lib/gcc/arm-none-eabi/10.3.1/../../../../arm-none-eabi/lib/thumb/v7e-m/nofp\libg.a(lib_a-callocr.o)
 .bss           0x00000000        0x0 c:/chibistudio/tools/gnu tools arm embedded/10.3 2021.07/bin/../lib/gcc/arm-none-eabi/10.3.1/../../../../arm-none-eabi/lib/thumb/v7e-m/nofp\libg.a(lib_a-callocr.o)
 .text          0x00000000        0x0 c:/chibistudio/tools/gnu tools arm embedded/10.3 2021.07/bin/../lib/gcc/arm-none-eabi/10.3.1/../../../../arm-none-eabi/lib/thumb/v7e-m/nofp\libg.a(lib_a-fiprintf.o)
 .data          0x00000000        0x0 c:/chibistudio/tools/gnu tools arm embedded/10.3 2021.07/bin/../lib/gcc/arm-none-eabi/10.3.1/../../../../arm-none-eabi/lib/thumb/v7e-m/nofp\libg.a(lib_a-fiprintf.o)
 .bss           0x00000000        0x0 c:/chibistudio/tools/gnu tools arm embedded/10.3 2021.07/bin/../lib/gcc/arm-none-eabi/10.3.1/../../../../arm-none-eabi/lib/thumb/v7e-m/nofp\libg.a(lib_a-fiprintf.o)
 .text._fiprintf_r
                0x00000000       0x1c c:/chibistudio/tools/gnu tools arm embedded/10.3 2021.07/bin/../lib/gcc/arm-none-eabi/10.3.1/../../../../arm-none-eabi/lib/thumb/v7e-m/nofp\libg.a(lib_a-fiprintf.o)
 .text          0x00000000        0x0 c:/chibistudio/tools/gnu tools arm embedded/10.3 2021.07/bin/../lib/gcc/arm-none-eabi/10.3.1/../../../../arm-none-eabi/lib/thumb/v7e-m/nofp\libg.a(lib_a-mallocr.o)
 .data          0x00000000        0x0 c:/chibistudio/tools/gnu tools arm embedded/10.3 2021.07/bin/../lib/gcc/arm-none-eabi/10.3.1/../../../../arm-none-eabi/lib/thumb/v7e-m/nofp\libg.a(lib_a-mallocr.o)
 .bss           0x00000000        0x0 c:/chibistudio/tools/gnu tools arm embedded/10.3 2021.07/bin/../lib/gcc/arm-none-eabi/10.3.1/../../../../arm-none-eabi/lib/thumb/v7e-m/nofp\libg.a(lib_a-mallocr.o)
 .text          0x00000000        0x0 c:/chibistudio/tools/gnu tools arm embedded/10.3 2021.07/bin/../lib/gcc/arm-none-eabi/10.3.1/../../../../arm-none-eabi/lib/thumb/v7e-m/nofp\libg.a(lib_a-memset.o)
 .data          0x00000000        0x0 c:/chibistudio/tools/gnu tools arm embedded/10.3 2021.07/bin/../lib/gcc/arm-none-eabi/10.3.1/../../../../arm-none-eabi/lib/thumb/v7e-m/nofp\libg.a(lib_a-memset.o)
 .bss           0x00000000        0x0 c:/chibistudio/tools/gnu tools arm embedded/10.3 2021.07/bin/../lib/gcc/arm-none-eabi/10.3.1/../../../../arm-none-eabi/lib/thumb/v7e-m/nofp\libg.a(lib_a-memset.o)
 .text          0x00000000        0x0 c:/chibistudio/tools/gnu tools arm embedded/10.3 2021.07/bin/../lib/gcc/arm-none-eabi/10.3.1/../../../../arm-none-eabi/lib/thumb/v7e-m/nofp\libg.a(lib_a-mlock.o)
 .data          0x00000000        0x0 c:/chibistudio/tools/gnu tools arm embedded/10.3 2021.07/bin/../lib/gcc/arm-none-eabi/10.3.1/../../../../arm-none-eabi/lib/thumb/v7e-m/nofp\libg.a(lib_a-mlock.o)
 .bss           0x00000000        0x0 c:/chibistudio/tools/gnu tools arm embedded/10.3 2021.07/bin/../lib/gcc/arm-none-eabi/10.3.1/../../../../arm-none-eabi/lib/thumb/v7e-m/nofp\libg.a(lib_a-mlock.o)
 .text          0x00000000        0x0 c:/chibistudio/tools/gnu tools arm embedded/10.3 2021.07/bin/../lib/gcc/arm-none-eabi/10.3.1/../../../../arm-none-eabi/lib/thumb/v7e-m/nofp\libg.a(lib_a-vfiprintf.o)
 .data          0x00000000        0x0 c:/chibistudio/tools/gnu tools arm embedded/10.3 2021.07/bin/../lib/gcc/arm-none-eabi/10.3.1/../../../../arm-none-eabi/lib/thumb/v7e-m/nofp\libg.a(lib_a-vfiprintf.o)
 .bss           0x00000000        0x0 c:/chibistudio/tools/gnu tools arm embedded/10.3 2021.07/bin/../lib/gcc/arm-none-eabi/10.3.1/../../../../arm-none-eabi/lib/thumb/v7e-m/nofp\libg.a(lib_a-vfiprintf.o)
 .text.__sprint_r
                0x00000000       0x14 c:/chibistudio/tools/gnu tools arm embedded/10.3 2021.07/bin/../lib/gcc/arm-none-eabi/10.3.1/../../../../arm-none-eabi/lib/thumb/v7e-m/nofp\libg.a(lib_a-vfiprintf.o)
 .text.vfiprintf
                0x00000000       0x18 c:/chibistudio/tools/gnu tools arm embedded/10.3 2021.07/bin/../lib/gcc/arm-none-eabi/10.3.1/../../../../arm-none-eabi/lib/thumb/v7e-m/nofp\libg.a(lib_a-vfiprintf.o)
 .text          0x00000000        0x0 c:/chibistudio/tools/gnu tools arm embedded/10.3 2021.07/bin/../lib/gcc/arm-none-eabi/10.3.1/../../../../arm-none-eabi/lib/thumb/v7e-m/nofp\libg.a(lib_a-wsetup.o)
 .data          0x00000000        0x0 c:/chibistudio/tools/gnu tools arm embedded/10.3 2021.07/bin/../lib/gcc/arm-none-eabi/10.3.1/../../../../arm-none-eabi/lib/thumb/v7e-m/nofp\libg.a(lib_a-wsetup.o)
 .bss           0x00000000        0x0 c:/chibistudio/tools/gnu tools arm embedded/10.3 2021.07/bin/../lib/gcc/arm-none-eabi/10.3.1/../../../../arm-none-eabi/lib/thumb/v7e-m/nofp\libg.a(lib_a-wsetup.o)
 .text          0x00000000        0x0 c:/chibistudio/tools/gnu tools arm embedded/10.3 2021.07/bin/../lib/gcc/arm-none-eabi/10.3.1/../../../../arm-none-eabi/lib/thumb/v7e-m/nofp\libg.a(lib_a-abort.o)
 .data          0x00000000        0x0 c:/chibistudio/tools/gnu tools arm embedded/10.3 2021.07/bin/../lib/gcc/arm-none-eabi/10.3.1/../../../../arm-none-eabi/lib/thumb/v7e-m/nofp\libg.a(lib_a-abort.o)
 .bss           0x00000000        0x0 c:/chibistudio/tools/gnu tools arm embedded/10.3 2021.07/bin/../lib/gcc/arm-none-eabi/10.3.1/../../../../arm-none-eabi/lib/thumb/v7e-m/nofp\libg.a(lib_a-abort.o)
 .text          0x00000000        0x0 c:/chibistudio/tools/gnu tools arm embedded/10.3 2021.07/bin/../lib/gcc/arm-none-eabi/10.3.1/../../../../arm-none-eabi/lib/thumb/v7e-m/nofp\libg.a(lib_a-fflush.o)
 .data          0x00000000        0x0 c:/chibistudio/tools/gnu tools arm embedded/10.3 2021.07/bin/../lib/gcc/arm-none-eabi/10.3.1/../../../../arm-none-eabi/lib/thumb/v7e-m/nofp\libg.a(lib_a-fflush.o)
 .bss           0x00000000        0x0 c:/chibistudio/tools/gnu tools arm embedded/10.3 2021.07/bin/../lib/gcc/arm-none-eabi/10.3.1/../../../../arm-none-eabi/lib/thumb/v7e-m/nofp\libg.a(lib_a-fflush.o)
 .text.fflush   0x00000000       0x74 c:/chibistudio/tools/gnu tools arm embedded/10.3 2021.07/bin/../lib/gcc/arm-none-eabi/10.3.1/../../../../arm-none-eabi/lib/thumb/v7e-m/nofp\libg.a(lib_a-fflush.o)
 .text          0x00000000        0x0 c:/chibistudio/tools/gnu tools arm embedded/10.3 2021.07/bin/../lib/gcc/arm-none-eabi/10.3.1/../../../../arm-none-eabi/lib/thumb/v7e-m/nofp\libg.a(lib_a-findfp.o)
 .data          0x00000000        0x0 c:/chibistudio/tools/gnu tools arm embedded/10.3 2021.07/bin/../lib/gcc/arm-none-eabi/10.3.1/../../../../arm-none-eabi/lib/thumb/v7e-m/nofp\libg.a(lib_a-findfp.o)
 .bss           0x00000000        0x0 c:/chibistudio/tools/gnu tools arm embedded/10.3 2021.07/bin/../lib/gcc/arm-none-eabi/10.3.1/../../../../arm-none-eabi/lib/thumb/v7e-m/nofp\libg.a(lib_a-findfp.o)
 .text.__fp_lock
                0x00000000       0x1c c:/chibistudio/tools/gnu tools arm embedded/10.3 2021.07/bin/../lib/gcc/arm-none-eabi/10.3.1/../../../../arm-none-eabi/lib/thumb/v7e-m/nofp\libg.a(lib_a-findfp.o)
 .text.__fp_unlock
                0x00000000       0x1c c:/chibistudio/tools/gnu tools arm embedded/10.3 2021.07/bin/../lib/gcc/arm-none-eabi/10.3.1/../../../../arm-none-eabi/lib/thumb/v7e-m/nofp\libg.a(lib_a-findfp.o)
 .text.__sfmoreglue
                0x00000000       0x30 c:/chibistudio/tools/gnu tools arm embedded/10.3 2021.07/bin/../lib/gcc/arm-none-eabi/10.3.1/../../../../arm-none-eabi/lib/thumb/v7e-m/nofp\libg.a(lib_a-findfp.o)
 .text._cleanup
                0x00000000       0x14 c:/chibistudio/tools/gnu tools arm embedded/10.3 2021.07/bin/../lib/gcc/arm-none-eabi/10.3.1/../../../../arm-none-eabi/lib/thumb/v7e-m/nofp\libg.a(lib_a-findfp.o)
 .text.__sfp    0x00000000       0xc8 c:/chibistudio/tools/gnu tools arm embedded/10.3 2021.07/bin/../lib/gcc/arm-none-eabi/10.3.1/../../../../arm-none-eabi/lib/thumb/v7e-m/nofp\libg.a(lib_a-findfp.o)
 .text.__sinit_lock_acquire
                0x00000000        0xc c:/chibistudio/tools/gnu tools arm embedded/10.3 2021.07/bin/../lib/gcc/arm-none-eabi/10.3.1/../../../../arm-none-eabi/lib/thumb/v7e-m/nofp\libg.a(lib_a-findfp.o)
 .text.__sinit_lock_release
                0x00000000        0xc c:/chibistudio/tools/gnu tools arm embedded/10.3 2021.07/bin/../lib/gcc/arm-none-eabi/10.3.1/../../../../arm-none-eabi/lib/thumb/v7e-m/nofp\libg.a(lib_a-findfp.o)
 .text.__fp_lock_all
                0x00000000       0x24 c:/chibistudio/tools/gnu tools arm embedded/10.3 2021.07/bin/../lib/gcc/arm-none-eabi/10.3.1/../../../../arm-none-eabi/lib/thumb/v7e-m/nofp\libg.a(lib_a-findfp.o)
 .text.__fp_unlock_all
                0x00000000       0x24 c:/chibistudio/tools/gnu tools arm embedded/10.3 2021.07/bin/../lib/gcc/arm-none-eabi/10.3.1/../../../../arm-none-eabi/lib/thumb/v7e-m/nofp\libg.a(lib_a-findfp.o)
 .text          0x00000000        0x0 c:/chibistudio/tools/gnu tools arm embedded/10.3 2021.07/bin/../lib/gcc/arm-none-eabi/10.3.1/../../../../arm-none-eabi/lib/thumb/v7e-m/nofp\libg.a(lib_a-fputwc.o)
 .data          0x00000000        0x0 c:/chibistudio/tools/gnu tools arm embedded/10.3 2021.07/bin/../lib/gcc/arm-none-eabi/10.3.1/../../../../arm-none-eabi/lib/thumb/v7e-m/nofp\libg.a(lib_a-fputwc.o)
 .bss           0x00000000        0x0 c:/chibistudio/tools/gnu tools arm embedded/10.3 2021.07/bin/../lib/gcc/arm-none-eabi/10.3.1/../../../../arm-none-eabi/lib/thumb/v7e-m/nofp\libg.a(lib_a-fputwc.o)
 .text.fputwc   0x00000000       0x74 c:/chibistudio/tools/gnu tools arm embedded/10.3 2021.07/bin/../lib/gcc/arm-none-eabi/10.3.1/../../../../arm-none-eabi/lib/thumb/v7e-m/nofp\libg.a(lib_a-fputwc.o)
 .text          0x00000000        0x0 c:/chibistudio/tools/gnu tools arm embedded/10.3 2021.07/bin/../lib/gcc/arm-none-eabi/10.3.1/../../../../arm-none-eabi/lib/thumb/v7e-m/nofp\libg.a(lib_a-freer.o)
 .data          0x00000000        0x0 c:/chibistudio/tools/gnu tools arm embedded/10.3 2021.07/bin/../lib/gcc/arm-none-eabi/10.3.1/../../../../arm-none-eabi/lib/thumb/v7e-m/nofp\libg.a(lib_a-freer.o)
 .bss           0x00000000        0x0 c:/chibistudio/tools/gnu tools arm embedded/10.3 2021.07/bin/../lib/gcc/arm-none-eabi/10.3.1/../../../../arm-none-eabi/lib/thumb/v7e-m/nofp\libg.a(lib_a-freer.o)
 .text          0x00000000        0x0 c:/chibistudio/tools/gnu tools arm embedded/10.3 2021.07/bin/../lib/gcc/arm-none-eabi/10.3.1/../../../../arm-none-eabi/lib/thumb/v7e-m/nofp\libg.a(lib_a-fvwrite.o)
 .data          0x00000000        0x0 c:/chibistudio/tools/gnu tools arm embedded/10.3 2021.07/bin/../lib/gcc/arm-none-eabi/10.3.1/../../../../arm-none-eabi/lib/thumb/v7e-m/nofp\libg.a(lib_a-fvwrite.o)
 .bss           0x00000000        0x0 c:/chibistudio/tools/gnu tools arm embedded/10.3 2021.07/bin/../lib/gcc/arm-none-eabi/10.3.1/../../../../arm-none-eabi/lib/thumb/v7e-m/nofp\libg.a(lib_a-fvwrite.o)
 .text          0x00000000        0x0 c:/chibistudio/tools/gnu tools arm embedded/10.3 2021.07/bin/../lib/gcc/arm-none-eabi/10.3.1/../../../../arm-none-eabi/lib/thumb/v7e-m/nofp\libg.a(lib_a-fwalk.o)
 .data          0x00000000        0x0 c:/chibistudio/tools/gnu tools arm embedded/10.3 2021.07/bin/../lib/gcc/arm-none-eabi/10.3.1/../../../../arm-none-eabi/lib/thumb/v7e-m/nofp\libg.a(lib_a-fwalk.o)
 .bss           0x00000000        0x0 c:/chibistudio/tools/gnu tools arm embedded/10.3 2021.07/bin/../lib/gcc/arm-none-eabi/10.3.1/../../../../arm-none-eabi/lib/thumb/v7e-m/nofp\libg.a(lib_a-fwalk.o)
 .text._fwalk   0x00000000       0x40 c:/chibistudio/tools/gnu tools arm embedded/10.3 2021.07/bin/../lib/gcc/arm-none-eabi/10.3.1/../../../../arm-none-eabi/lib/thumb/v7e-m/nofp\libg.a(lib_a-fwalk.o)
 .text          0x00000000        0x0 c:/chibistudio/tools/gnu tools arm embedded/10.3 2021.07/bin/../lib/gcc/arm-none-eabi/10.3.1/../../../../arm-none-eabi/lib/thumb/v7e-m/nofp\libg.a(lib_a-localeconv.o)
 .data          0x00000000        0x0 c:/chibistudio/tools/gnu tools arm embedded/10.3 2021.07/bin/../lib/gcc/arm-none-eabi/10.3.1/../../../../arm-none-eabi/lib/thumb/v7e-m/nofp\libg.a(lib_a-localeconv.o)
 .bss           0x00000000        0x0 c:/chibistudio/tools/gnu tools arm embedded/10.3 2021.07/bin/../lib/gcc/arm-none-eabi/10.3.1/../../../../arm-none-eabi/lib/thumb/v7e-m/nofp\libg.a(lib_a-localeconv.o)
 .text.__localeconv_l
                0x00000000        0x4 c:/chibistudio/tools/gnu tools arm embedded/10.3 2021.07/bin/../lib/gcc/arm-none-eabi/10.3.1/../../../../arm-none-eabi/lib/thumb/v7e-m/nofp\libg.a(lib_a-localeconv.o)
 .text.localeconv
                0x00000000        0x8 c:/chibistudio/tools/gnu tools arm embedded/10.3 2021.07/bin/../lib/gcc/arm-none-eabi/10.3.1/../../../../arm-none-eabi/lib/thumb/v7e-m/nofp\libg.a(lib_a-localeconv.o)
 .text          0x00000000        0x0 c:/chibistudio/tools/gnu tools arm embedded/10.3 2021.07/bin/../lib/gcc/arm-none-eabi/10.3.1/../../../../arm-none-eabi/lib/thumb/v7e-m/nofp\libg.a(lib_a-lock.o)
 .data          0x00000000        0x0 c:/chibistudio/tools/gnu tools arm embedded/10.3 2021.07/bin/../lib/gcc/arm-none-eabi/10.3.1/../../../../arm-none-eabi/lib/thumb/v7e-m/nofp\libg.a(lib_a-lock.o)
 .bss           0x00000000        0x0 c:/chibistudio/tools/gnu tools arm embedded/10.3 2021.07/bin/../lib/gcc/arm-none-eabi/10.3.1/../../../../arm-none-eabi/lib/thumb/v7e-m/nofp\libg.a(lib_a-lock.o)
 .text.__retarget_lock_init
                0x00000000        0x4 c:/chibistudio/tools/gnu tools arm embedded/10.3 2021.07/bin/../lib/gcc/arm-none-eabi/10.3.1/../../../../arm-none-eabi/lib/thumb/v7e-m/nofp\libg.a(lib_a-lock.o)
 .text.__retarget_lock_close
                0x00000000        0x4 c:/chibistudio/tools/gnu tools arm embedded/10.3 2021.07/bin/../lib/gcc/arm-none-eabi/10.3.1/../../../../arm-none-eabi/lib/thumb/v7e-m/nofp\libg.a(lib_a-lock.o)
 .text.__retarget_lock_acquire
                0x00000000        0x4 c:/chibistudio/tools/gnu tools arm embedded/10.3 2021.07/bin/../lib/gcc/arm-none-eabi/10.3.1/../../../../arm-none-eabi/lib/thumb/v7e-m/nofp\libg.a(lib_a-lock.o)
 .text.__retarget_lock_try_acquire
                0x00000000        0x4 c:/chibistudio/tools/gnu tools arm embedded/10.3 2021.07/bin/../lib/gcc/arm-none-eabi/10.3.1/../../../../arm-none-eabi/lib/thumb/v7e-m/nofp\libg.a(lib_a-lock.o)
 .text.__retarget_lock_try_acquire_recursive
                0x00000000        0x4 c:/chibistudio/tools/gnu tools arm embedded/10.3 2021.07/bin/../lib/gcc/arm-none-eabi/10.3.1/../../../../arm-none-eabi/lib/thumb/v7e-m/nofp\libg.a(lib_a-lock.o)
 .text.__retarget_lock_release
                0x00000000        0x4 c:/chibistudio/tools/gnu tools arm embedded/10.3 2021.07/bin/../lib/gcc/arm-none-eabi/10.3.1/../../../../arm-none-eabi/lib/thumb/v7e-m/nofp\libg.a(lib_a-lock.o)
 .bss.__lock___arc4random_mutex
                0x00000000        0x1 c:/chibistudio/tools/gnu tools arm embedded/10.3 2021.07/bin/../lib/gcc/arm-none-eabi/10.3.1/../../../../arm-none-eabi/lib/thumb/v7e-m/nofp\libg.a(lib_a-lock.o)
 .bss.__lock___at_quick_exit_mutex
                0x00000000        0x1 c:/chibistudio/tools/gnu tools arm embedded/10.3 2021.07/bin/../lib/gcc/arm-none-eabi/10.3.1/../../../../arm-none-eabi/lib/thumb/v7e-m/nofp\libg.a(lib_a-lock.o)
 .bss.__lock___atexit_recursive_mutex
                0x00000000        0x1 c:/chibistudio/tools/gnu tools arm embedded/10.3 2021.07/bin/../lib/gcc/arm-none-eabi/10.3.1/../../../../arm-none-eabi/lib/thumb/v7e-m/nofp\libg.a(lib_a-lock.o)
 .bss.__lock___dd_hash_mutex
                0x00000000        0x1 c:/chibistudio/tools/gnu tools arm embedded/10.3 2021.07/bin/../lib/gcc/arm-none-eabi/10.3.1/../../../../arm-none-eabi/lib/thumb/v7e-m/nofp\libg.a(lib_a-lock.o)
 .bss.__lock___env_recursive_mutex
                0x00000000        0x1 c:/chibistudio/tools/gnu tools arm embedded/10.3 2021.07/bin/../lib/gcc/arm-none-eabi/10.3.1/../../../../arm-none-eabi/lib/thumb/v7e-m/nofp\libg.a(lib_a-lock.o)
 .bss.__lock___tz_mutex
                0x00000000        0x1 c:/chibistudio/tools/gnu tools arm embedded/10.3 2021.07/bin/../lib/gcc/arm-none-eabi/10.3.1/../../../../arm-none-eabi/lib/thumb/v7e-m/nofp\libg.a(lib_a-lock.o)
 .text          0x00000000        0x0 c:/chibistudio/tools/gnu tools arm embedded/10.3 2021.07/bin/../lib/gcc/arm-none-eabi/10.3.1/../../../../arm-none-eabi/lib/thumb/v7e-m/nofp\libg.a(lib_a-makebuf.o)
 .data          0x00000000        0x0 c:/chibistudio/tools/gnu tools arm embedded/10.3 2021.07/bin/../lib/gcc/arm-none-eabi/10.3.1/../../../../arm-none-eabi/lib/thumb/v7e-m/nofp\libg.a(lib_a-makebuf.o)
 .bss           0x00000000        0x0 c:/chibistudio/tools/gnu tools arm embedded/10.3 2021.07/bin/../lib/gcc/arm-none-eabi/10.3.1/../../../../arm-none-eabi/lib/thumb/v7e-m/nofp\libg.a(lib_a-makebuf.o)
 .text.__swhatbuf_r
                0x00000000       0x60 c:/chibistudio/tools/gnu tools arm embedded/10.3 2021.07/bin/../lib/gcc/arm-none-eabi/10.3.1/../../../../arm-none-eabi/lib/thumb/v7e-m/nofp\libg.a(lib_a-makebuf.o)
 .data          0x00000000        0x0 c:/chibistudio/tools/gnu tools arm embedded/10.3 2021.07/bin/../lib/gcc/arm-none-eabi/10.3.1/../../../../arm-none-eabi/lib/thumb/v7e-m/nofp\libg.a(lib_a-memchr.o)
 .bss           0x00000000        0x0 c:/chibistudio/tools/gnu tools arm embedded/10.3 2021.07/bin/../lib/gcc/arm-none-eabi/10.3.1/../../../../arm-none-eabi/lib/thumb/v7e-m/nofp\libg.a(lib_a-memchr.o)
 .text          0x00000000        0x0 c:/chibistudio/tools/gnu tools arm embedded/10.3 2021.07/bin/../lib/gcc/arm-none-eabi/10.3.1/../../../../arm-none-eabi/lib/thumb/v7e-m/nofp\libg.a(lib_a-memmove.o)
 .data          0x00000000        0x0 c:/chibistudio/tools/gnu tools arm embedded/10.3 2021.07/bin/../lib/gcc/arm-none-eabi/10.3.1/../../../../arm-none-eabi/lib/thumb/v7e-m/nofp\libg.a(lib_a-memmove.o)
 .bss           0x00000000        0x0 c:/chibistudio/tools/gnu tools arm embedded/10.3 2021.07/bin/../lib/gcc/arm-none-eabi/10.3.1/../../../../arm-none-eabi/lib/thumb/v7e-m/nofp\libg.a(lib_a-memmove.o)
 .text          0x00000000        0x0 c:/chibistudio/tools/gnu tools arm embedded/10.3 2021.07/bin/../lib/gcc/arm-none-eabi/10.3.1/../../../../arm-none-eabi/lib/thumb/v7e-m/nofp\libg.a(lib_a-reallocr.o)
 .data          0x00000000        0x0 c:/chibistudio/tools/gnu tools arm embedded/10.3 2021.07/bin/../lib/gcc/arm-none-eabi/10.3.1/../../../../arm-none-eabi/lib/thumb/v7e-m/nofp\libg.a(lib_a-reallocr.o)
 .bss           0x00000000        0x0 c:/chibistudio/tools/gnu tools arm embedded/10.3 2021.07/bin/../lib/gcc/arm-none-eabi/10.3.1/../../../../arm-none-eabi/lib/thumb/v7e-m/nofp\libg.a(lib_a-reallocr.o)
 .text          0x00000000        0x0 c:/chibistudio/tools/gnu tools arm embedded/10.3 2021.07/bin/../lib/gcc/arm-none-eabi/10.3.1/../../../../arm-none-eabi/lib/thumb/v7e-m/nofp\libg.a(lib_a-signal.o)
 .data          0x00000000        0x0 c:/chibistudio/tools/gnu tools arm embedded/10.3 2021.07/bin/../lib/gcc/arm-none-eabi/10.3.1/../../../../arm-none-eabi/lib/thumb/v7e-m/nofp\libg.a(lib_a-signal.o)
 .bss           0x00000000        0x0 c:/chibistudio/tools/gnu tools arm embedded/10.3 2021.07/bin/../lib/gcc/arm-none-eabi/10.3.1/../../../../arm-none-eabi/lib/thumb/v7e-m/nofp\libg.a(lib_a-signal.o)
 .text._init_signal_r
                0x00000000       0x30 c:/chibistudio/tools/gnu tools arm embedded/10.3 2021.07/bin/../lib/gcc/arm-none-eabi/10.3.1/../../../../arm-none-eabi/lib/thumb/v7e-m/nofp\libg.a(lib_a-signal.o)
 .text._signal_r
                0x00000000       0x4c c:/chibistudio/tools/gnu tools arm embedded/10.3 2021.07/bin/../lib/gcc/arm-none-eabi/10.3.1/../../../../arm-none-eabi/lib/thumb/v7e-m/nofp\libg.a(lib_a-signal.o)
 .text._raise_r
                0x00000000       0x58 c:/chibistudio/tools/gnu tools arm embedded/10.3 2021.07/bin/../lib/gcc/arm-none-eabi/10.3.1/../../../../arm-none-eabi/lib/thumb/v7e-m/nofp\libg.a(lib_a-signal.o)
 .text.__sigtramp_r
                0x00000000       0x64 c:/chibistudio/tools/gnu tools arm embedded/10.3 2021.07/bin/../lib/gcc/arm-none-eabi/10.3.1/../../../../arm-none-eabi/lib/thumb/v7e-m/nofp\libg.a(lib_a-signal.o)
 .text.signal   0x00000000       0x54 c:/chibistudio/tools/gnu tools arm embedded/10.3 2021.07/bin/../lib/gcc/arm-none-eabi/10.3.1/../../../../arm-none-eabi/lib/thumb/v7e-m/nofp\libg.a(lib_a-signal.o)
 .text._init_signal
                0x00000000       0x38 c:/chibistudio/tools/gnu tools arm embedded/10.3 2021.07/bin/../lib/gcc/arm-none-eabi/10.3.1/../../../../arm-none-eabi/lib/thumb/v7e-m/nofp\libg.a(lib_a-signal.o)
 .text.__sigtramp
                0x00000000       0x68 c:/chibistudio/tools/gnu tools arm embedded/10.3 2021.07/bin/../lib/gcc/arm-none-eabi/10.3.1/../../../../arm-none-eabi/lib/thumb/v7e-m/nofp\libg.a(lib_a-signal.o)
 .text          0x00000000        0x0 c:/chibistudio/tools/gnu tools arm embedded/10.3 2021.07/bin/../lib/gcc/arm-none-eabi/10.3.1/../../../../arm-none-eabi/lib/thumb/v7e-m/nofp\libg.a(lib_a-signalr.o)
 .data          0x00000000        0x0 c:/chibistudio/tools/gnu tools arm embedded/10.3 2021.07/bin/../lib/gcc/arm-none-eabi/10.3.1/../../../../arm-none-eabi/lib/thumb/v7e-m/nofp\libg.a(lib_a-signalr.o)
 .bss           0x00000000        0x0 c:/chibistudio/tools/gnu tools arm embedded/10.3 2021.07/bin/../lib/gcc/arm-none-eabi/10.3.1/../../../../arm-none-eabi/lib/thumb/v7e-m/nofp\libg.a(lib_a-signalr.o)
 .text          0x00000000        0x0 c:/chibistudio/tools/gnu tools arm embedded/10.3 2021.07/bin/../lib/gcc/arm-none-eabi/10.3.1/../../../../arm-none-eabi/lib/thumb/v7e-m/nofp\libg.a(lib_a-stdio.o)
 .data          0x00000000        0x0 c:/chibistudio/tools/gnu tools arm embedded/10.3 2021.07/bin/../lib/gcc/arm-none-eabi/10.3.1/../../../../arm-none-eabi/lib/thumb/v7e-m/nofp\libg.a(lib_a-stdio.o)
 .bss           0x00000000        0x0 c:/chibistudio/tools/gnu tools arm embedded/10.3 2021.07/bin/../lib/gcc/arm-none-eabi/10.3.1/../../../../arm-none-eabi/lib/thumb/v7e-m/nofp\libg.a(lib_a-stdio.o)
 .text.__seofread
                0x00000000        0x4 c:/chibistudio/tools/gnu tools arm embedded/10.3 2021.07/bin/../lib/gcc/arm-none-eabi/10.3.1/../../../../arm-none-eabi/lib/thumb/v7e-m/nofp\libg.a(lib_a-stdio.o)
 .text          0x00000000        0x0 c:/chibistudio/tools/gnu tools arm embedded/10.3 2021.07/bin/../lib/gcc/arm-none-eabi/10.3.1/../../../../arm-none-eabi/lib/thumb/v7e-m/nofp\libg.a(lib_a-strncpy.o)
 .data          0x00000000        0x0 c:/chibistudio/tools/gnu tools arm embedded/10.3 2021.07/bin/../lib/gcc/arm-none-eabi/10.3.1/../../../../arm-none-eabi/lib/thumb/v7e-m/nofp\libg.a(lib_a-strncpy.o)
 .bss           0x00000000        0x0 c:/chibistudio/tools/gnu tools arm embedded/10.3 2021.07/bin/../lib/gcc/arm-none-eabi/10.3.1/../../../../arm-none-eabi/lib/thumb/v7e-m/nofp\libg.a(lib_a-strncpy.o)
 .text          0x00000000        0x0 c:/chibistudio/tools/gnu tools arm embedded/10.3 2021.07/bin/../lib/gcc/arm-none-eabi/10.3.1/../../../../arm-none-eabi/lib/thumb/v7e-m/nofp\libg.a(lib_a-wbuf.o)
 .data          0x00000000        0x0 c:/chibistudio/tools/gnu tools arm embedded/10.3 2021.07/bin/../lib/gcc/arm-none-eabi/10.3.1/../../../../arm-none-eabi/lib/thumb/v7e-m/nofp\libg.a(lib_a-wbuf.o)
 .bss           0x00000000        0x0 c:/chibistudio/tools/gnu tools arm embedded/10.3 2021.07/bin/../lib/gcc/arm-none-eabi/10.3.1/../../../../arm-none-eabi/lib/thumb/v7e-m/nofp\libg.a(lib_a-wbuf.o)
 .text.__swbuf  0x00000000       0x18 c:/chibistudio/tools/gnu tools arm embedded/10.3 2021.07/bin/../lib/gcc/arm-none-eabi/10.3.1/../../../../arm-none-eabi/lib/thumb/v7e-m/nofp\libg.a(lib_a-wbuf.o)
 .text          0x00000000        0x0 c:/chibistudio/tools/gnu tools arm embedded/10.3 2021.07/bin/../lib/gcc/arm-none-eabi/10.3.1/../../../../arm-none-eabi/lib/thumb/v7e-m/nofp\libg.a(lib_a-wcrtomb.o)
 .data          0x00000000        0x0 c:/chibistudio/tools/gnu tools arm embedded/10.3 2021.07/bin/../lib/gcc/arm-none-eabi/10.3.1/../../../../arm-none-eabi/lib/thumb/v7e-m/nofp\libg.a(lib_a-wcrtomb.o)
 .bss           0x00000000        0x0 c:/chibistudio/tools/gnu tools arm embedded/10.3 2021.07/bin/../lib/gcc/arm-none-eabi/10.3.1/../../../../arm-none-eabi/lib/thumb/v7e-m/nofp\libg.a(lib_a-wcrtomb.o)
 .text.wcrtomb  0x00000000       0x50 c:/chibistudio/tools/gnu tools arm embedded/10.3 2021.07/bin/../lib/gcc/arm-none-eabi/10.3.1/../../../../arm-none-eabi/lib/thumb/v7e-m/nofp\libg.a(lib_a-wcrtomb.o)
 .text          0x00000000        0x0 c:/chibistudio/tools/gnu tools arm embedded/10.3 2021.07/bin/../lib/gcc/arm-none-eabi/10.3.1/../../../../arm-none-eabi/lib/thumb/v7e-m/nofp\libg.a(lib_a-fclose.o)
 .data          0x00000000        0x0 c:/chibistudio/tools/gnu tools arm embedded/10.3 2021.07/bin/../lib/gcc/arm-none-eabi/10.3.1/../../../../arm-none-eabi/lib/thumb/v7e-m/nofp\libg.a(lib_a-fclose.o)
 .bss           0x00000000        0x0 c:/chibistudio/tools/gnu tools arm embedded/10.3 2021.07/bin/../lib/gcc/arm-none-eabi/10.3.1/../../../../arm-none-eabi/lib/thumb/v7e-m/nofp\libg.a(lib_a-fclose.o)
 .text.fclose   0x00000000       0x10 c:/chibistudio/tools/gnu tools arm embedded/10.3 2021.07/bin/../lib/gcc/arm-none-eabi/10.3.1/../../../../arm-none-eabi/lib/thumb/v7e-m/nofp\libg.a(lib_a-fclose.o)
 .text          0x00000000        0x0 c:/chibistudio/tools/gnu tools arm embedded/10.3 2021.07/bin/../lib/gcc/arm-none-eabi/10.3.1/../../../../arm-none-eabi/lib/thumb/v7e-m/nofp\libg.a(lib_a-reent.o)
 .data          0x00000000        0x0 c:/chibistudio/tools/gnu tools arm embedded/10.3 2021.07/bin/../lib/gcc/arm-none-eabi/10.3.1/../../../../arm-none-eabi/lib/thumb/v7e-m/nofp\libg.a(lib_a-reent.o)
 .bss           0x00000000        0x0 c:/chibistudio/tools/gnu tools arm embedded/10.3 2021.07/bin/../lib/gcc/arm-none-eabi/10.3.1/../../../../arm-none-eabi/lib/thumb/v7e-m/nofp\libg.a(lib_a-reent.o)
 .text.cleanup_glue
                0x00000000       0x48 c:/chibistudio/tools/gnu tools arm embedded/10.3 2021.07/bin/../lib/gcc/arm-none-eabi/10.3.1/../../../../arm-none-eabi/lib/thumb/v7e-m/nofp\libg.a(lib_a-reent.o)
 .text._reclaim_reent
                0x00000000       0x90 c:/chibistudio/tools/gnu tools arm embedded/10.3 2021.07/bin/../lib/gcc/arm-none-eabi/10.3.1/../../../../arm-none-eabi/lib/thumb/v7e-m/nofp\libg.a(lib_a-reent.o)
 .text          0x00000000        0x0 c:/chibistudio/tools/gnu tools arm embedded/10.3 2021.07/bin/../lib/gcc/arm-none-eabi/10.3.1/../../../../arm-none-eabi/lib/thumb/v7e-m/nofp\libg.a(lib_a-strcasecmp.o)
 .data          0x00000000        0x0 c:/chibistudio/tools/gnu tools arm embedded/10.3 2021.07/bin/../lib/gcc/arm-none-eabi/10.3.1/../../../../arm-none-eabi/lib/thumb/v7e-m/nofp\libg.a(lib_a-strcasecmp.o)
 .bss           0x00000000        0x0 c:/chibistudio/tools/gnu tools arm embedded/10.3 2021.07/bin/../lib/gcc/arm-none-eabi/10.3.1/../../../../arm-none-eabi/lib/thumb/v7e-m/nofp\libg.a(lib_a-strcasecmp.o)
 .text          0x00000000        0x0 c:/chibistudio/tools/gnu tools arm embedded/10.3 2021.07/bin/../lib/gcc/arm-none-eabi/10.3.1/../../../../arm-none-eabi/lib/thumb/v7e-m/nofp\libg.a(lib_a-strchr.o)
 .data          0x00000000        0x0 c:/chibistudio/tools/gnu tools arm embedded/10.3 2021.07/bin/../lib/gcc/arm-none-eabi/10.3.1/../../../../arm-none-eabi/lib/thumb/v7e-m/nofp\libg.a(lib_a-strchr.o)
 .bss           0x00000000        0x0 c:/chibistudio/tools/gnu tools arm embedded/10.3 2021.07/bin/../lib/gcc/arm-none-eabi/10.3.1/../../../../arm-none-eabi/lib/thumb/v7e-m/nofp\libg.a(lib_a-strchr.o)
 .text          0x00000000        0x0 c:/chibistudio/tools/gnu tools arm embedded/10.3 2021.07/bin/../lib/gcc/arm-none-eabi/10.3.1/../../../../arm-none-eabi/lib/thumb/v7e-m/nofp\libg.a(lib_a-strpbrk.o)
 .data          0x00000000        0x0 c:/chibistudio/tools/gnu tools arm embedded/10.3 2021.07/bin/../lib/gcc/arm-none-eabi/10.3.1/../../../../arm-none-eabi/lib/thumb/v7e-m/nofp\libg.a(lib_a-strpbrk.o)
 .bss           0x00000000        0x0 c:/chibistudio/tools/gnu tools arm embedded/10.3 2021.07/bin/../lib/gcc/arm-none-eabi/10.3.1/../../../../arm-none-eabi/lib/thumb/v7e-m/nofp\libg.a(lib_a-strpbrk.o)
 .text          0x00000000        0x0 c:/chibistudio/tools/gnu tools arm embedded/10.3 2021.07/bin/../lib/gcc/arm-none-eabi/10.3.1/../../../../arm-none-eabi/lib/thumb/v7e-m/nofp\libg.a(lib_a-strspn.o)
 .data          0x00000000        0x0 c:/chibistudio/tools/gnu tools arm embedded/10.3 2021.07/bin/../lib/gcc/arm-none-eabi/10.3.1/../../../../arm-none-eabi/lib/thumb/v7e-m/nofp\libg.a(lib_a-strspn.o)
 .bss           0x00000000        0x0 c:/chibistudio/tools/gnu tools arm embedded/10.3 2021.07/bin/../lib/gcc/arm-none-eabi/10.3.1/../../../../arm-none-eabi/lib/thumb/v7e-m/nofp\libg.a(lib_a-strspn.o)
 .data          0x00000000        0x0 c:/chibistudio/tools/gnu tools arm embedded/10.3 2021.07/bin/../lib/gcc/arm-none-eabi/10.3.1/thumb/v7e-m/nofp\libgcc.a(_arm_fixunsdfsi.o)
 .bss           0x00000000        0x0 c:/chibistudio/tools/gnu tools arm embedded/10.3 2021.07/bin/../lib/gcc/arm-none-eabi/10.3.1/thumb/v7e-m/nofp\libgcc.a(_arm_fixunsdfsi.o)
 .data          0x00000000        0x0 c:/chibistudio/tools/gnu tools arm embedded/10.3 2021.07/bin/../lib/gcc/arm-none-eabi/10.3.1/thumb/v7e-m/nofp\libgcc.a(_arm_truncdfsf2.o)
 .bss           0x00000000        0x0 c:/chibistudio/tools/gnu tools arm embedded/10.3 2021.07/bin/../lib/gcc/arm-none-eabi/10.3.1/thumb/v7e-m/nofp\libgcc.a(_arm_truncdfsf2.o)
 .data          0x00000000        0x0 c:/chibistudio/tools/gnu tools arm embedded/10.3 2021.07/bin/../lib/gcc/arm-none-eabi/10.3.1/thumb/v7e-m/nofp\libgcc.a(_arm_cmpsf2.o)
 .bss           0x00000000        0x0 c:/chibistudio/tools/gnu tools arm embedded/10.3 2021.07/bin/../lib/gcc/arm-none-eabi/10.3.1/thumb/v7e-m/nofp\libgcc.a(_arm_cmpsf2.o)
 .data          0x00000000        0x0 c:/chibistudio/tools/gnu tools arm embedded/10.3 2021.07/bin/../lib/gcc/arm-none-eabi/10.3.1/thumb/v7e-m/nofp\libgcc.a(_arm_unordsf2.o)
 .bss           0x00000000        0x0 c:/chibistudio/tools/gnu tools arm embedded/10.3 2021.07/bin/../lib/gcc/arm-none-eabi/10.3.1/thumb/v7e-m/nofp\libgcc.a(_arm_unordsf2.o)
 .data          0x00000000        0x0 c:/chibistudio/tools/gnu tools arm embedded/10.3 2021.07/bin/../lib/gcc/arm-none-eabi/10.3.1/thumb/v7e-m/nofp\libgcc.a(_aeabi_uldivmod.o)
 .bss           0x00000000        0x0 c:/chibistudio/tools/gnu tools arm embedded/10.3 2021.07/bin/../lib/gcc/arm-none-eabi/10.3.1/thumb/v7e-m/nofp\libgcc.a(_aeabi_uldivmod.o)
 .data          0x00000000        0x0 c:/chibistudio/tools/gnu tools arm embedded/10.3 2021.07/bin/../lib/gcc/arm-none-eabi/10.3.1/thumb/v7e-m/nofp\libgcc.a(_fixdfdi.o)
 .bss           0x00000000        0x0 c:/chibistudio/tools/gnu tools arm embedded/10.3 2021.07/bin/../lib/gcc/arm-none-eabi/10.3.1/thumb/v7e-m/nofp\libgcc.a(_fixdfdi.o)
 .data          0x00000000        0x0 c:/chibistudio/tools/gnu tools arm embedded/10.3 2021.07/bin/../lib/gcc/arm-none-eabi/10.3.1/thumb/v7e-m/nofp\libgcc.a(_fixunsdfdi.o)
 .bss           0x00000000        0x0 c:/chibistudio/tools/gnu tools arm embedded/10.3 2021.07/bin/../lib/gcc/arm-none-eabi/10.3.1/thumb/v7e-m/nofp\libgcc.a(_fixunsdfdi.o)
 .data          0x00000000        0x0 c:/chibistudio/tools/gnu tools arm embedded/10.3 2021.07/bin/../lib/gcc/arm-none-eabi/10.3.1/thumb/v7e-m/nofp\libgcc.a(_udivmoddi4.o)
 .bss           0x00000000        0x0 c:/chibistudio/tools/gnu tools arm embedded/10.3 2021.07/bin/../lib/gcc/arm-none-eabi/10.3.1/thumb/v7e-m/nofp\libgcc.a(_udivmoddi4.o)
 .ARM.extab     0x00000000        0x0 c:/chibistudio/tools/gnu tools arm embedded/10.3 2021.07/bin/../lib/gcc/arm-none-eabi/10.3.1/thumb/v7e-m/nofp\libgcc.a(_udivmoddi4.o)
 .data          0x00000000        0x0 c:/chibistudio/tools/gnu tools arm embedded/10.3 2021.07/bin/../lib/gcc/arm-none-eabi/10.3.1/thumb/v7e-m/nofp\libgcc.a(_dvmd_tls.o)
 .bss           0x00000000        0x0 c:/chibistudio/tools/gnu tools arm embedded/10.3 2021.07/bin/../lib/gcc/arm-none-eabi/10.3.1/thumb/v7e-m/nofp\libgcc.a(_dvmd_tls.o)

Memory Configuration

Name             Origin             Length             Attributes
flash0           0x08000000         0x00080000         xr
flash1           0x00000000         0x00000000         xr
flash2           0x00000000         0x00000000         xr
flash3           0x00000000         0x00000000         xr
flash4           0x00000000         0x00000000         xr
flash5           0x00000000         0x00000000         xr
flash6           0x00000000         0x00000000         xr
flash7           0x00000000         0x00000000         xr
ram0             0x20000000         0x00020000         xw
ram1             0x20000000         0x00018000         xw
ram2             0x20000000         0x00014000         xw
ram3             0x20014000         0x00004000         xw
ram4             0x20018000         0x00008000         xw
ram5             0x10000000         0x00008000         xw
ram6             0x00000000         0x00000000         xw
ram7             0x00000000         0x00000000         xw
*default*        0x00000000         0xffffffff

Linker script and memory map

LOAD ./build/obj/crt0_v7m.o
LOAD ./build/obj/vectors.o
LOAD ./build/obj/chcoreasm.o
LOAD ./build/obj/crt1.o
LOAD C:\Users\zerog\AppData\Local\Temp\APS_DIGITAL_CGG.elf.PLIgTd.ltrans0.ltrans.o
LOAD C:\Users\zerog\AppData\Local\Temp\ccOf8eYl.debug.temp.o
LOAD C:\Users\zerog\AppData\Local\Temp\cc87Y6jq.debug.temp.o
LOAD C:\Users\zerog\AppData\Local\Temp\ccurFesu.debug.temp.o
LOAD C:\Users\zerog\AppData\Local\Temp\ccQKlmAy.debug.temp.o
LOAD C:\Users\zerog\AppData\Local\Temp\ccmnLjNC.debug.temp.o
LOAD C:\Users\zerog\AppData\Local\Temp\cckm59mH.debug.temp.o
LOAD C:\Users\zerog\AppData\Local\Temp\ccilp0WL.debug.temp.o
LOAD C:\Users\zerog\AppData\Local\Temp\ccqxjRAQ.debug.temp.o
LOAD C:\Users\zerog\AppData\Local\Temp\ccyJdIeV.debug.temp.o
LOAD C:\Users\zerog\AppData\Local\Temp\ccke5lEZ.debug.temp.o
LOAD C:\Users\zerog\AppData\Local\Temp\cc6IWZ33.debug.temp.o
LOAD C:\Users\zerog\AppData\Local\Temp\ccSdODt8.debug.temp.o
LOAD C:\Users\zerog\AppData\Local\Temp\ccgs7e0c.debug.temp.o
LOAD C:\Users\zerog\AppData\Local\Temp\ccEGqQwh.debug.temp.o
LOAD C:\Users\zerog\AppData\Local\Temp\ccOdrvfl.debug.temp.o
LOAD C:\Users\zerog\AppData\Local\Temp\ccYKraYo.debug.temp.o
LOAD C:\Users\zerog\AppData\Local\Temp\cccunSus.debug.temp.o
LOAD C:\Users\zerog\AppData\Local\Temp\ccqdjA1v.debug.temp.o
LOAD C:\Users\zerog\AppData\Local\Temp\ccEWeiyz.debug.temp.o
LOAD C:\Users\zerog\AppData\Local\Temp\cciPws9C.debug.temp.o
LOAD C:\Users\zerog\AppData\Local\Temp\ccWHOCKG.debug.temp.o
LOAD C:\Users\zerog\AppData\Local\Temp\ccufxHJK.debug.temp.o
LOAD C:\Users\zerog\AppData\Local\Temp\cc2MfMIO.debug.temp.o
LOAD C:\Users\zerog\AppData\Local\Temp\ccAokFMS.debug.temp.o
LOAD C:\Users\zerog\AppData\Local\Temp\cc8ZoyQW.debug.temp.o
LOAD C:\Users\zerog\AppData\Local\Temp\cckqXmG0.debug.temp.o
LOAD C:\Users\zerog\AppData\Local\Temp\ccwQvbw4.debug.temp.o
LOAD C:\Users\zerog\AppData\Local\Temp\cc2M7zq8.debug.temp.o
LOAD C:\Users\zerog\AppData\Local\Temp\ccyJJYkc.debug.temp.o
LOAD C:\Users\zerog\AppData\Local\Temp\ccGJFprf.debug.temp.o
LOAD C:\Users\zerog\AppData\Local\Temp\ccOJBQxi.debug.temp.o
LOAD C:\Users\zerog\AppData\Local\Temp\ccSl4jKl.debug.temp.o
LOAD C:\Users\zerog\AppData\Local\Temp\ccWXwNWo.debug.temp.o
LOAD C:\Users\zerog\AppData\Local\Temp\cc0zZg9r.debug.temp.o
LOAD C:\Users\zerog\AppData\Local\Temp\ccEmOf7u.debug.temp.o
LOAD C:\Users\zerog\AppData\Local\Temp\cci9Ce5x.debug.temp.o
LOAD C:\Users\zerog\AppData\Local\Temp\ccivMN7A.debug.temp.o
LOAD C:\Users\zerog\AppData\Local\Temp\cciRVmaE.debug.temp.o
LOAD C:\Users\zerog\AppData\Local\Temp\ccYooIzH.debug.temp.o
LOAD C:\Users\zerog\AppData\Local\Temp\ccEWQ3YK.debug.temp.o
LOAD C:\Users\zerog\AppData\Local\Temp\ccUoz1sO.debug.temp.o
LOAD C:\Users\zerog\AppData\Local\Temp\ccaRhZWR.debug.temp.o
LOAD C:\Users\zerog\AppData\Local\Temp\ccKVajfV.debug.temp.o
LOAD C:\Users\zerog\AppData\Local\Temp\cck03CxY.debug.temp.o
LOAD C:\Users\zerog\AppData\Local\Temp\ccUAJlU1.debug.temp.o
LOAD C:\Users\zerog\AppData\Local\Temp\ccubp4g5.debug.temp.o
LOAD C:\Users\zerog\AppData\Local\Temp\ccOXoiP7.debug.temp.o
LOAD C:\Users\zerog\AppData\Local\Temp\cc8Jowna.debug.temp.o
LOAD C:\Users\zerog\AppData\Local\Temp\ccIWTj0c.debug.temp.o
LOAD C:\Users\zerog\AppData\Local\Temp\cci9o7Cf.debug.temp.o
LOAD C:\Users\zerog\AppData\Local\Temp\ccYQeU1h.debug.temp.o
LOAD C:\Users\zerog\AppData\Local\Temp\ccEy4Gqk.debug.temp.o
LOAD C:\Users\zerog\AppData\Local\Temp\cck8fXdn.debug.temp.o
LOAD C:\Users\zerog\AppData\Local\Temp\cc0Hrd1p.debug.temp.o
LOAD C:\Users\zerog\AppData\Local\Temp\ccgaQOSs.debug.temp.o
LOAD C:\Users\zerog\AppData\Local\Temp\ccwCeqKv.debug.temp.o
LOAD C:\Users\zerog\AppData\Local\Temp\ccM4C1By.debug.temp.o
LOAD C:\Users\zerog\AppData\Local\Temp\ccSvdKiB.debug.temp.o
LOAD C:\Users\zerog\AppData\Local\Temp\ccYWNsZD.debug.temp.o
LOAD C:\Users\zerog\AppData\Local\Temp\cc4nobGG.debug.temp.o
LOAD C:\Users\zerog\AppData\Local\Temp\ccIK33rJ.debug.temp.o
LOAD C:\Users\zerog\AppData\Local\Temp\ccm7IWdM.debug.temp.o
LOAD C:\Users\zerog\AppData\Local\Temp\ccIs02TS.debug.temp.o
LOAD ./build/obj/hal.o
LOAD ./build/obj/hal_st.o
LOAD ./build/obj/hal_buffered_serial.o
LOAD ./build/obj/hal_buffers.o
LOAD ./build/obj/hal_queues.o
LOAD ./build/obj/hal_flash.o
LOAD ./build/obj/hal_mmcsd.o
LOAD ./build/obj/hal_gpt.o
LOAD ./build/obj/hal_pal.o
LOAD ./build/obj/hal_serial_usb.o
LOAD ./build/obj/hal_sio.o
LOAD ./build/obj/hal_spi.o
LOAD ./build/obj/hal_usb.o
LOAD ./build/obj/nvic.o
LOAD ./build/obj/stm32_isr.o
LOAD ./build/obj/hal_lld.o
LOAD ./build/obj/hal_efl_lld.o
LOAD ./build/obj/stm32_dma.o
LOAD ./build/obj/stm32_exti.o
LOAD ./build/obj/hal_pal_lld.o
LOAD ./build/obj/hal_spi_v2_lld.o
LOAD ./build/obj/hal_st_lld.o
LOAD ./build/obj/hal_gpt_lld.o
LOAD ./build/obj/hal_sio_lld.o
LOAD ./build/obj/hal_usb_lld.o
LOAD ./build/obj/board.o
LOAD ./build/obj/osal.o
LOAD ./build/obj/chsys.o
LOAD ./build/obj/chrfcu.o
LOAD ./build/obj/chdebug.o
LOAD ./build/obj/chtrace.o
LOAD ./build/obj/chvt.o
LOAD ./build/obj/chschd.o
LOAD ./build/obj/chinstances.o
LOAD ./build/obj/chthreads.o
LOAD ./build/obj/chtm.o
LOAD ./build/obj/chstats.o
LOAD ./build/obj/chregistry.o
LOAD ./build/obj/chsem.o
LOAD ./build/obj/chmtx.o
LOAD ./build/obj/chcond.o
LOAD ./build/obj/chevents.o
LOAD ./build/obj/chmsg.o
LOAD ./build/obj/chdynamic.o
LOAD ./build/obj/chmboxes.o
LOAD ./build/obj/chmemcore.o
LOAD ./build/obj/chmemheaps.o
LOAD ./build/obj/chmempools.o
LOAD ./build/obj/chcore.o
LOAD ./build/obj/chcoreapi.o
LOAD ./build/obj/chprintf.o
LOAD ./build/obj/chscanf.o
LOAD ./build/obj/memstreams.o
LOAD ./build/obj/nullstreams.o
LOAD ./build/obj/bufstreams.o
LOAD ./build/obj/shell.o
LOAD ./build/obj/shell_cmd.o
LOAD ./build/obj/syscalls.o
LOAD ./build/obj/usbcfg.o
LOAD ./build/obj/main.o
LOAD ./build/obj/digital_driver.o
LOAD ./build/obj/AD8460.o
LOAD c:/chibistudio/tools/gnu tools arm embedded/10.3 2021.07/bin/../lib/gcc/arm-none-eabi/10.3.1/../../../../arm-none-eabi/lib/thumb/v7e-m/nofp\libm.a

.mstack         0x20000000      0x400
                0x20000000                . = ALIGN (0x8)
                0x20000000                __main_stack_base__ = .
                0x20000400                . = (. + __main_stack_size__)
 *fill*         0x20000000      0x400 
                0x20000400                . = ALIGN (0x8)
                0x20000400                __main_stack_end__ = .

.pstack         0x20000400      0x400
                0x20000400                . = ALIGN (0x8)
                0x20000400                __process_stack_base__ = .
                0x20000400                __main_thread_stack_base__ = .
                0x20000800                . = (. + __process_stack_size__)
 *fill*         0x20000400      0x400 
                0x20000800                . = ALIGN (0x8)
                0x20000800                __process_stack_end__ = .
                0x20000800                __main_thread_stack_end__ = .

.vectors        0x08000000      0x1e0
                0x08000000                __textvectors_base__ = LOADADDR (.vectors)
                0x08000000                __vectors_base__ = .
 *(.vectors)
 .vectors       0x08000000      0x1e0 ./build/obj/vectors.o
                0x08000000                _vectors
                0x080001e0                __vectors_end__ = .

.xtors          0x080001e0        0x0
                0x080001e0                __init_array_base__ = .
 *(SORT_BY_NAME(.init_array.*))
 *(.init_array)
                0x080001e0                __init_array_end__ = .
                0x080001e0                __fini_array_base__ = .
 *(.fini_array)
 *(SORT_BY_NAME(.fini_array.*))
                0x080001e0                __fini_array_end__ = .

.text           0x08000200     0xf624
                0x08000200                __text_base__ = .
 *(.text)
 .text          0x08000200       0xd8 ./build/obj/crt0_v7m.o
                0x08000200                _crt0_entry
 .text          0x080002d8        0x8 ./build/obj/vectors.o
                0x080002d8                Reset_Handler
                0x080002da                VectorAC
                0x080002da                DebugMon_Handler
                0x080002da                Vector1A0
                0x080002da                Vector11C
                0x080002da                HardFault_Handler
                0x080002da                Vector1B8
                0x080002da                Vector19C
                0x080002da                Vector8C
                0x080002da                SysTick_Handler
                0x080002da                VectorDC
                0x080002da                Vector168
                0x080002da                NMI_Handler
                0x080002da                Vector110
                0x080002da                Vector1D8
                0x080002da                VectorC8
                0x080002da                Vector94
                0x080002da                VectorA8
                0x080002da                VectorB4
                0x080002da                Vector160
                0x080002da                Vector1B0
                0x080002da                UsageFault_Handler
                0x080002da                VectorEC
                0x080002da                Vector40
                0x080002da                VectorF8
                0x080002da                Vector108
                0x080002da                VectorBC
                0x080002da                Vector190
                0x080002da                Vector150
                0x080002da                Vector148
                0x080002da                Vector188
                0x080002da                Vector198
                0x080002da                Vector118
                0x080002da                VectorE8
                0x080002da                VectorCC
                0x080002da                Vector54
                0x080002da                Vector98
                0x080002da                Vector138
                0x080002da                Vector24
                0x080002da                Vector1AC
                0x080002da                Vector178
                0x080002da                SecureFault_Handler
                0x080002da                Vector1A4
                0x080002da                VectorD0
                0x080002da                Vector1B4
                0x080002da                Vector140
                0x080002da                VectorE4
                0x080002da                VectorC0
                0x080002da                Vector158
                0x080002da                Vector134
                0x080002da                Vector1D0
                0x080002da                VectorF0
                0x080002da                Vector13C
                0x080002da                Vector100
                0x080002da                VectorF4
                0x080002da                MemManage_Handler
                0x080002da                VectorA0
                0x080002da                VectorC4
                0x080002da                Vector180
                0x080002da                Vector114
                0x080002da                Vector164
                0x080002da                Vector1BC
                0x080002da                Vector1D4
                0x080002da                Vector17C
                0x080002da                Vector48
                0x080002da                Vector1A8
                0x080002da                Vector16C
                0x080002da                VectorD4
                0x080002da                Vector4C
                0x080002da                Vector144
                0x080002da                Vector15C
                0x080002da                Vector18C
                0x080002da                Vector170
                0x080002da                Vector88
                0x080002da                Vector104
                0x080002da                Vector184
                0x080002da                Vector10C
                0x080002da                Vector14C
                0x080002da                BusFault_Handler
                0x080002da                Vector50
                0x080002da                Vector194
                0x080002da                Vector1DC
                0x080002da                Vector154
                0x080002da                Vector44
                0x080002da                Vector28
                0x080002da                VectorFC
                0x080002da                Vector34
                0x080002da                VectorA4
                0x080002da                Vector20
                0x080002da                Vector174
                0x080002de                _unhandled_exception
 .text          0x080002e0       0x8a ./build/obj/chcoreasm.o
                0x080002e0                SVC_Handler
                0x08000310                PendSV_Handler
                0x08000350                __port_thread_start
 *fill*         0x0800036a        0x2 
 .text          0x0800036c      0x378 c:/chibistudio/tools/gnu tools arm embedded/10.3 2021.07/bin/../lib/gcc/arm-none-eabi/10.3.1/thumb/v7e-m/nofp\libgcc.a(_arm_addsubdf3.o)
                0x0800036c                __aeabi_drsub
                0x08000374                __aeabi_dsub
                0x08000374                __subdf3
                0x08000378                __aeabi_dadd
                0x08000378                __adddf3
                0x080005f0                __floatunsidf
                0x080005f0                __aeabi_ui2d
                0x08000610                __floatsidf
                0x08000610                __aeabi_i2d
                0x08000634                __aeabi_f2d
                0x08000634                __extendsfdf2
                0x08000678                __floatundidf
                0x08000678                __aeabi_ul2d
                0x08000688                __floatdidf
                0x08000688                __aeabi_l2d
 .text          0x080006e4      0x424 c:/chibistudio/tools/gnu tools arm embedded/10.3 2021.07/bin/../lib/gcc/arm-none-eabi/10.3.1/thumb/v7e-m/nofp\libgcc.a(_arm_muldivdf3.o)
                0x080006e4                __aeabi_dmul
                0x080006e4                __muldf3
                0x08000938                __divdf3
                0x08000938                __aeabi_ddiv
 .text          0x08000b08      0x110 c:/chibistudio/tools/gnu tools arm embedded/10.3 2021.07/bin/../lib/gcc/arm-none-eabi/10.3.1/thumb/v7e-m/nofp\libgcc.a(_arm_cmpdf2.o)
                0x08000b08                __gtdf2
                0x08000b08                __gedf2
                0x08000b10                __ltdf2
                0x08000b10                __ledf2
                0x08000b18                __nedf2
                0x08000b18                __eqdf2
                0x08000b18                __cmpdf2
                0x08000b94                __aeabi_cdrcmple
                0x08000ba4                __aeabi_cdcmpeq
                0x08000ba4                __aeabi_cdcmple
                0x08000bb4                __aeabi_dcmpeq
                0x08000bc8                __aeabi_dcmplt
                0x08000bdc                __aeabi_dcmple
                0x08000bf0                __aeabi_dcmpge
                0x08000c04                __aeabi_dcmpgt
 .text          0x08000c18       0x2c c:/chibistudio/tools/gnu tools arm embedded/10.3 2021.07/bin/../lib/gcc/arm-none-eabi/10.3.1/thumb/v7e-m/nofp\libgcc.a(_arm_unorddf2.o)
                0x08000c18                __unorddf2
                0x08000c18                __aeabi_dcmpun
 .text          0x08000c44      0x168 c:/chibistudio/tools/gnu tools arm embedded/10.3 2021.07/bin/../lib/gcc/arm-none-eabi/10.3.1/thumb/v7e-m/nofp\libgcc.a(_arm_mulsf3.o)
                0x08000c44                __aeabi_fmul
                0x08000c44                __mulsf3
 .text          0x08000dac       0x50 c:/chibistudio/tools/gnu tools arm embedded/10.3 2021.07/bin/../lib/gcc/arm-none-eabi/10.3.1/thumb/v7e-m/nofp\libgcc.a(_arm_fixdfsi.o)
                0x08000dac                __aeabi_d2iz
                0x08000dac                __fixdfsi
 .text          0x08000dfc       0x4c c:/chibistudio/tools/gnu tools arm embedded/10.3 2021.07/bin/../lib/gcc/arm-none-eabi/10.3.1/thumb/v7e-m/nofp\libgcc.a(_arm_fixsfsi.o)
                0x08000dfc                __aeabi_f2iz
                0x08000dfc                __fixsfsi
 .text          0x08000e48       0x40 c:/chibistudio/tools/gnu tools arm embedded/10.3 2021.07/bin/../lib/gcc/arm-none-eabi/10.3.1/thumb/v7e-m/nofp\libgcc.a(_arm_fixunssfsi.o)
                0x08000e48                __fixunssfsi
                0x08000e48                __aeabi_f2uiz
 .text          0x08000e88      0x134 c:/chibistudio/tools/gnu tools arm embedded/10.3 2021.07/bin/../lib/gcc/arm-none-eabi/10.3.1/../../../../arm-none-eabi/lib/thumb/v7e-m/nofp\libg.a(lib_a-memcpy.o)
                0x08000e88                memcpy
 *fill*         0x08000fbc        0x4 
 .text          0x08000fc0      0x2dc c:/chibistudio/tools/gnu tools arm embedded/10.3 2021.07/bin/../lib/gcc/arm-none-eabi/10.3.1/../../../../arm-none-eabi/lib/thumb/v7e-m/nofp\libg.a(lib_a-strcmp.o)
                0x08000fc8                strcmp
 *fill*         0x0800129c       0x24 
 .text          0x080012c0       0xdc c:/chibistudio/tools/gnu tools arm embedded/10.3 2021.07/bin/../lib/gcc/arm-none-eabi/10.3.1/../../../../arm-none-eabi/lib/thumb/v7e-m/nofp\libg.a(lib_a-strlen.o)
                0x080012c0                strlen
 *fill*         0x0800139c        0x4 
 .text          0x080013a0       0xa0 c:/chibistudio/tools/gnu tools arm embedded/10.3 2021.07/bin/../lib/gcc/arm-none-eabi/10.3.1/../../../../arm-none-eabi/lib/thumb/v7e-m/nofp\libg.a(lib_a-memchr.o)
                0x080013a0                memchr
 .text          0x08001440       0x40 c:/chibistudio/tools/gnu tools arm embedded/10.3 2021.07/bin/../lib/gcc/arm-none-eabi/10.3.1/thumb/v7e-m/nofp\libgcc.a(_arm_fixunsdfsi.o)
                0x08001440                __aeabi_d2uiz
                0x08001440                __fixunsdfsi
 .text          0x08001480       0xa0 c:/chibistudio/tools/gnu tools arm embedded/10.3 2021.07/bin/../lib/gcc/arm-none-eabi/10.3.1/thumb/v7e-m/nofp\libgcc.a(_arm_truncdfsf2.o)
                0x08001480                __truncdfsf2
                0x08001480                __aeabi_d2f
 .text          0x08001520       0xec c:/chibistudio/tools/gnu tools arm embedded/10.3 2021.07/bin/../lib/gcc/arm-none-eabi/10.3.1/thumb/v7e-m/nofp\libgcc.a(_arm_cmpsf2.o)
                0x08001520                __gesf2
                0x08001520                __gtsf2
                0x08001528                __lesf2
                0x08001528                __ltsf2
                0x08001530                __nesf2
                0x08001530                __eqsf2
                0x08001530                __cmpsf2
                0x08001590                __aeabi_cfrcmple
                0x08001598                __aeabi_cfcmpeq
                0x08001598                __aeabi_cfcmple
                0x080015a8                __aeabi_fcmpeq
                0x080015bc                __aeabi_fcmplt
                0x080015d0                __aeabi_fcmple
                0x080015e4                __aeabi_fcmpge
                0x080015f8                __aeabi_fcmpgt
 .text          0x0800160c       0x2c c:/chibistudio/tools/gnu tools arm embedded/10.3 2021.07/bin/../lib/gcc/arm-none-eabi/10.3.1/thumb/v7e-m/nofp\libgcc.a(_arm_unordsf2.o)
                0x0800160c                __unordsf2
                0x0800160c                __aeabi_fcmpun
 .text          0x08001638       0x30 c:/chibistudio/tools/gnu tools arm embedded/10.3 2021.07/bin/../lib/gcc/arm-none-eabi/10.3.1/thumb/v7e-m/nofp\libgcc.a(_aeabi_uldivmod.o)
                0x08001638                __aeabi_uldivmod
 .text          0x08001668       0x34 c:/chibistudio/tools/gnu tools arm embedded/10.3 2021.07/bin/../lib/gcc/arm-none-eabi/10.3.1/thumb/v7e-m/nofp\libgcc.a(_fixdfdi.o)
                0x08001668                __fixdfdi
                0x08001668                __aeabi_d2lz
 .text          0x0800169c       0x3c c:/chibistudio/tools/gnu tools arm embedded/10.3 2021.07/bin/../lib/gcc/arm-none-eabi/10.3.1/thumb/v7e-m/nofp\libgcc.a(_fixunsdfdi.o)
                0x0800169c                __fixunsdfdi
                0x0800169c                __aeabi_d2ulz
 .text          0x080016d8      0x2d0 c:/chibistudio/tools/gnu tools arm embedded/10.3 2021.07/bin/../lib/gcc/arm-none-eabi/10.3.1/thumb/v7e-m/nofp\libgcc.a(_udivmoddi4.o)
                0x080016d8                __udivmoddi4
 .text          0x080019a8        0x4 c:/chibistudio/tools/gnu tools arm embedded/10.3 2021.07/bin/../lib/gcc/arm-none-eabi/10.3.1/thumb/v7e-m/nofp\libgcc.a(_dvmd_tls.o)
                0x080019a8                __aeabi_idiv0
                0x080019a8                __aeabi_ldiv0
 *(.text.*)
 *fill*         0x080019ac        0x4 
 .text.sduRequestsHook
                0x080019b0       0x40 C:\Users\zerog\AppData\Local\Temp\APS_DIGITAL_CGG.elf.PLIgTd.ltrans0.ltrans.o
 .text.sduInterruptTransmitted
                0x080019f0        0x4 C:\Users\zerog\AppData\Local\Temp\APS_DIGITAL_CGG.elf.PLIgTd.ltrans0.ltrans.o
 *fill*         0x080019f4        0xc 
 .text.set_address
                0x08001a00       0x28 C:\Users\zerog\AppData\Local\Temp\APS_DIGITAL_CGG.elf.PLIgTd.ltrans0.ltrans.o
 *fill*         0x08001a28        0x8 
 .text.dmaServeInterrupt
                0x08001a30       0x3c C:\Users\zerog\AppData\Local\Temp\APS_DIGITAL_CGG.elf.PLIgTd.ltrans0.ltrans.o
 *fill*         0x08001a6c        0x4 
 .text._pal_lld_setgroupmode
                0x08001a70       0xc8 C:\Users\zerog\AppData\Local\Temp\APS_DIGITAL_CGG.elf.PLIgTd.ltrans0.ltrans.o
 *fill*         0x08001b38        0x8 
 .text.sio_lld_put
                0x08001b40       0x2c C:\Users\zerog\AppData\Local\Temp\APS_DIGITAL_CGG.elf.PLIgTd.ltrans0.ltrans.o
 *fill*         0x08001b6c        0x4 
 .text.chSysHalt
                0x08001b70       0x18 C:\Users\zerog\AppData\Local\Temp\APS_DIGITAL_CGG.elf.PLIgTd.ltrans0.ltrans.o
 *fill*         0x08001b88        0x8 
 .text.__idle_thread
                0x08001b90        0x4 C:\Users\zerog\AppData\Local\Temp\APS_DIGITAL_CGG.elf.PLIgTd.ltrans0.ltrans.o
 *fill*         0x08001b94        0xc 
 .text.chTMStartMeasurementX
                0x08001ba0        0xc C:\Users\zerog\AppData\Local\Temp\APS_DIGITAL_CGG.elf.PLIgTd.ltrans0.ltrans.o
 *fill*         0x08001bac        0x4 
 .text.__stats_start_measure_crit_thd
                0x08001bb0        0xc C:\Users\zerog\AppData\Local\Temp\APS_DIGITAL_CGG.elf.PLIgTd.ltrans0.ltrans.o
 *fill*         0x08001bbc        0x4 
 .text.chTMStopMeasurementX
                0x08001bc0       0x44 C:\Users\zerog\AppData\Local\Temp\APS_DIGITAL_CGG.elf.PLIgTd.ltrans0.ltrans.o
 *fill*         0x08001c04        0xc 
 .text.chTMChainMeasurementToX
                0x08001c10       0x3c C:\Users\zerog\AppData\Local\Temp\APS_DIGITAL_CGG.elf.PLIgTd.ltrans0.ltrans.o
 *fill*         0x08001c4c        0x4 
 .text.get_descriptor
                0x08001c50       0x34 C:\Users\zerog\AppData\Local\Temp\APS_DIGITAL_CGG.elf.PLIgTd.ltrans0.ltrans.o
 *fill*         0x08001c84        0xc 
 .text.ibqReleaseEmptyBufferS
                0x08001c90       0x58 C:\Users\zerog\AppData\Local\Temp\APS_DIGITAL_CGG.elf.PLIgTd.ltrans0.ltrans.o
 *fill*         0x08001ce8        0x8 
 .text.__dbg_check_lock
                0x08001cf0       0x24 C:\Users\zerog\AppData\Local\Temp\APS_DIGITAL_CGG.elf.PLIgTd.ltrans0.ltrans.o
 *fill*         0x08001d14        0xc 
 .text.obqPostFullBufferS
                0x08001d20       0x64 C:\Users\zerog\AppData\Local\Temp\APS_DIGITAL_CGG.elf.PLIgTd.ltrans0.ltrans.o
 *fill*         0x08001d84        0xc 
 .text._ctl     0x08001d90       0x1c C:\Users\zerog\AppData\Local\Temp\APS_DIGITAL_CGG.elf.PLIgTd.ltrans0.ltrans.o
 *fill*         0x08001dac        0x4 
 .text.chDbgCheckClassI
                0x08001db0       0x24 C:\Users\zerog\AppData\Local\Temp\APS_DIGITAL_CGG.elf.PLIgTd.ltrans0.ltrans.o
 *fill*         0x08001dd4        0xc 
 .text.__ctl    0x08001de0       0x24 C:\Users\zerog\AppData\Local\Temp\APS_DIGITAL_CGG.elf.PLIgTd.ltrans0.ltrans.o
 *fill*         0x08001e04        0xc 
 .text.chSysUnlock.lto_priv.3
                0x08001e10       0x50 C:\Users\zerog\AppData\Local\Temp\APS_DIGITAL_CGG.elf.PLIgTd.ltrans0.ltrans.o
 .text.spiSelect
                0x08001e60       0x7c C:\Users\zerog\AppData\Local\Temp\APS_DIGITAL_CGG.elf.PLIgTd.ltrans0.ltrans.o
 *fill*         0x08001edc        0x4 
 .text.spiUnselect
                0x08001ee0       0x7c C:\Users\zerog\AppData\Local\Temp\APS_DIGITAL_CGG.elf.PLIgTd.ltrans0.ltrans.o
 *fill*         0x08001f5c        0x4 
 .text.usbStartReceiveI
                0x08001f60       0x94 C:\Users\zerog\AppData\Local\Temp\APS_DIGITAL_CGG.elf.PLIgTd.ltrans0.ltrans.o
 *fill*         0x08001ff4        0xc 
 .text.usbStartTransmitI
                0x08002000       0xcc C:\Users\zerog\AppData\Local\Temp\APS_DIGITAL_CGG.elf.PLIgTd.ltrans0.ltrans.o
 *fill*         0x080020cc        0x4 
 .text.obnotify
                0x080020d0       0x6c C:\Users\zerog\AppData\Local\Temp\APS_DIGITAL_CGG.elf.PLIgTd.ltrans0.ltrans.o
 *fill*         0x0800213c        0x4 
 .text._usb_ep0setup
                0x08002140      0x508 C:\Users\zerog\AppData\Local\Temp\APS_DIGITAL_CGG.elf.PLIgTd.ltrans0.ltrans.o
 *fill*         0x08002648        0x8 
 .text._usb_ep0in
                0x08002650      0x158 C:\Users\zerog\AppData\Local\Temp\APS_DIGITAL_CGG.elf.PLIgTd.ltrans0.ltrans.o
 *fill*         0x080027a8        0x8 
 .text._usb_ep0out
                0x080027b0       0xe4 C:\Users\zerog\AppData\Local\Temp\APS_DIGITAL_CGG.elf.PLIgTd.ltrans0.ltrans.o
 *fill*         0x08002894        0xc 
 .text.usb_lld_init_endpoint
                0x080028a0       0xe8 C:\Users\zerog\AppData\Local\Temp\APS_DIGITAL_CGG.elf.PLIgTd.ltrans0.ltrans.o
 *fill*         0x08002988        0x8 
 .text.vt_set_alarm
                0x08002990       0x5c C:\Users\zerog\AppData\Local\Temp\APS_DIGITAL_CGG.elf.PLIgTd.ltrans0.ltrans.o
 *fill*         0x080029ec        0x4 
 .text.__sch_wakeup
                0x080029f0       0xc8 C:\Users\zerog\AppData\Local\Temp\APS_DIGITAL_CGG.elf.PLIgTd.ltrans0.ltrans.o
 *fill*         0x08002ab8        0x8 
 .text.chSchGoSleepS
                0x08002ac0       0x78 C:\Users\zerog\AppData\Local\Temp\APS_DIGITAL_CGG.elf.PLIgTd.ltrans0.ltrans.o
 *fill*         0x08002b38        0x8 
 .text.chSchRescheduleS
                0x08002b40       0x84 C:\Users\zerog\AppData\Local\Temp\APS_DIGITAL_CGG.elf.PLIgTd.ltrans0.ltrans.o
 *fill*         0x08002bc4        0xc 
 .text.chThdCreateSuspendedI
                0x08002bd0       0xd8 C:\Users\zerog\AppData\Local\Temp\APS_DIGITAL_CGG.elf.PLIgTd.ltrans0.ltrans.o
 *fill*         0x08002ca8        0x8 
 .text.chThdDequeueAllI
                0x08002cb0       0x64 C:\Users\zerog\AppData\Local\Temp\APS_DIGITAL_CGG.elf.PLIgTd.ltrans0.ltrans.o
 *fill*         0x08002d14        0xc 
 .text.chCoreAllocFromTop
                0x08002d20       0x98 C:\Users\zerog\AppData\Local\Temp\APS_DIGITAL_CGG.elf.PLIgTd.ltrans0.ltrans.o
 *fill*         0x08002db8        0x8 
 .text.sof_handler
                0x08002dc0       0xf8 C:\Users\zerog\AppData\Local\Temp\APS_DIGITAL_CGG.elf.PLIgTd.ltrans0.ltrans.o
 *fill*         0x08002eb8        0x8 
 .text.chSchWakeupS.constprop.0
                0x08002ec0       0xc8 C:\Users\zerog\AppData\Local\Temp\APS_DIGITAL_CGG.elf.PLIgTd.ltrans0.ltrans.o
 *fill*         0x08002f88        0x8 
 .text.vt_insert_first.constprop.0
                0x08002f90       0x80 C:\Users\zerog\AppData\Local\Temp\APS_DIGITAL_CGG.elf.PLIgTd.ltrans0.ltrans.o
 .text.chSchGoSleepTimeoutS
                0x08003010      0x140 C:\Users\zerog\AppData\Local\Temp\APS_DIGITAL_CGG.elf.PLIgTd.ltrans0.ltrans.o
 .text.ibqGetFullBufferTimeoutS
                0x08003150       0x7c C:\Users\zerog\AppData\Local\Temp\APS_DIGITAL_CGG.elf.PLIgTd.ltrans0.ltrans.o
 *fill*         0x080031cc        0x4 
 .text.ibqGetTimeout
                0x080031d0       0xb8 C:\Users\zerog\AppData\Local\Temp\APS_DIGITAL_CGG.elf.PLIgTd.ltrans0.ltrans.o
 *fill*         0x08003288        0x8 
 .text._get     0x08003290        0xc C:\Users\zerog\AppData\Local\Temp\APS_DIGITAL_CGG.elf.PLIgTd.ltrans0.ltrans.o
 *fill*         0x0800329c        0x4 
 .text._gett    0x080032a0        0x8 C:\Users\zerog\AppData\Local\Temp\APS_DIGITAL_CGG.elf.PLIgTd.ltrans0.ltrans.o
 *fill*         0x080032a8        0x8 
 .text.obqGetEmptyBufferTimeoutS
                0x080032b0       0x7c C:\Users\zerog\AppData\Local\Temp\APS_DIGITAL_CGG.elf.PLIgTd.ltrans0.ltrans.o
 *fill*         0x0800332c        0x4 
 .text.obqPutTimeout
                0x08003330       0xcc C:\Users\zerog\AppData\Local\Temp\APS_DIGITAL_CGG.elf.PLIgTd.ltrans0.ltrans.o
 *fill*         0x080033fc        0x4 
 .text._put     0x08003400        0xc C:\Users\zerog\AppData\Local\Temp\APS_DIGITAL_CGG.elf.PLIgTd.ltrans0.ltrans.o
 *fill*         0x0800340c        0x4 
 .text._putt    0x08003410        0x8 C:\Users\zerog\AppData\Local\Temp\APS_DIGITAL_CGG.elf.PLIgTd.ltrans0.ltrans.o
 *fill*         0x08003418        0x8 
 .text.sioSynchronizeRX
                0x08003420      0x108 C:\Users\zerog\AppData\Local\Temp\APS_DIGITAL_CGG.elf.PLIgTd.ltrans0.ltrans.o
 *fill*         0x08003528        0x8 
 .text.sync_read
                0x08003530      0x11c C:\Users\zerog\AppData\Local\Temp\APS_DIGITAL_CGG.elf.PLIgTd.ltrans0.ltrans.o
 *fill*         0x0800364c        0x4 
 .text.__read   0x08003650        0x8 C:\Users\zerog\AppData\Local\Temp\APS_DIGITAL_CGG.elf.PLIgTd.ltrans0.ltrans.o
 *fill*         0x08003658        0x8 
 .text.__readt  0x08003660        0x4 C:\Users\zerog\AppData\Local\Temp\APS_DIGITAL_CGG.elf.PLIgTd.ltrans0.ltrans.o
 *fill*         0x08003664        0xc 
 .text.__get    0x08003670       0x38 C:\Users\zerog\AppData\Local\Temp\APS_DIGITAL_CGG.elf.PLIgTd.ltrans0.ltrans.o
 *fill*         0x080036a8        0x8 
 .text.__gett   0x080036b0       0x34 C:\Users\zerog\AppData\Local\Temp\APS_DIGITAL_CGG.elf.PLIgTd.ltrans0.ltrans.o
 *fill*         0x080036e4        0xc 
 .text.sioSynchronizeTX
                0x080036f0       0xcc C:\Users\zerog\AppData\Local\Temp\APS_DIGITAL_CGG.elf.PLIgTd.ltrans0.ltrans.o
 *fill*         0x080037bc        0x4 
 .text.sync_write
                0x080037c0      0x100 C:\Users\zerog\AppData\Local\Temp\APS_DIGITAL_CGG.elf.PLIgTd.ltrans0.ltrans.o
 .text.__write  0x080038c0        0x8 C:\Users\zerog\AppData\Local\Temp\APS_DIGITAL_CGG.elf.PLIgTd.ltrans0.ltrans.o
 *fill*         0x080038c8        0x8 
 .text.__writet
                0x080038d0        0x4 C:\Users\zerog\AppData\Local\Temp\APS_DIGITAL_CGG.elf.PLIgTd.ltrans0.ltrans.o
 *fill*         0x080038d4        0xc 
 .text.__put    0x080038e0       0x20 C:\Users\zerog\AppData\Local\Temp\APS_DIGITAL_CGG.elf.PLIgTd.ltrans0.ltrans.o
 .text.__putt   0x08003900       0x1c C:\Users\zerog\AppData\Local\Temp\APS_DIGITAL_CGG.elf.PLIgTd.ltrans0.ltrans.o
 *fill*         0x0800391c        0x4 
 .text.chThdSleep
                0x08003920       0x88 C:\Users\zerog\AppData\Local\Temp\APS_DIGITAL_CGG.elf.PLIgTd.ltrans0.ltrans.o
 *fill*         0x080039a8        0x8 
 .text.Thread_LED
                0x080039b0       0xec C:\Users\zerog\AppData\Local\Temp\APS_DIGITAL_CGG.elf.PLIgTd.ltrans0.ltrans.o
 *fill*         0x08003a9c        0x4 
 .text.chSchReadyI.isra.0
                0x08003aa0       0x60 C:\Users\zerog\AppData\Local\Temp\APS_DIGITAL_CGG.elf.PLIgTd.ltrans0.ltrans.o
 .text.spi_lld_serve_rx_interrupt
                0x08003b00      0x110 C:\Users\zerog\AppData\Local\Temp\APS_DIGITAL_CGG.elf.PLIgTd.ltrans0.ltrans.o
 .text.spi_lld_serve_tx_interrupt
                0x08003c10       0x14 C:\Users\zerog\AppData\Local\Temp\APS_DIGITAL_CGG.elf.PLIgTd.ltrans0.ltrans.o
 *fill*         0x08003c24        0xc 
 .text.chThdExitS
                0x08003c30       0x50 C:\Users\zerog\AppData\Local\Temp\APS_DIGITAL_CGG.elf.PLIgTd.ltrans0.ltrans.o
 .text.chMtxLock
                0x08003c80      0x150 C:\Users\zerog\AppData\Local\Temp\APS_DIGITAL_CGG.elf.PLIgTd.ltrans0.ltrans.o
 .text.chMtxUnlock
                0x08003dd0       0xd4 C:\Users\zerog\AppData\Local\Temp\APS_DIGITAL_CGG.elf.PLIgTd.ltrans0.ltrans.o
 *fill*         0x08003ea4        0xc 
 .text.chRegNextThread
                0x08003eb0      0x238 C:\Users\zerog\AppData\Local\Temp\APS_DIGITAL_CGG.elf.PLIgTd.ltrans0.ltrans.o
 *fill*         0x080040e8        0x8 
 .text.chEvtBroadcastFlagsI
                0x080040f0       0xa4 C:\Users\zerog\AppData\Local\Temp\APS_DIGITAL_CGG.elf.PLIgTd.ltrans0.ltrans.o
 *fill*         0x08004194        0xc 
 .text.sduDataTransmitted
                0x080041a0      0x154 C:\Users\zerog\AppData\Local\Temp\APS_DIGITAL_CGG.elf.PLIgTd.ltrans0.ltrans.o
 *fill*         0x080042f4        0xc 
 .text.chThdDequeueNextI.constprop.0
                0x08004300       0x30 C:\Users\zerog\AppData\Local\Temp\APS_DIGITAL_CGG.elf.PLIgTd.ltrans0.ltrans.o
 .text.sdu_start_receive.isra.0
                0x08004330       0x64 C:\Users\zerog\AppData\Local\Temp\APS_DIGITAL_CGG.elf.PLIgTd.ltrans0.ltrans.o
 *fill*         0x08004394        0xc 
 .text.ibnotify
                0x080043a0        0x8 C:\Users\zerog\AppData\Local\Temp\APS_DIGITAL_CGG.elf.PLIgTd.ltrans0.ltrans.o
 *fill*         0x080043a8        0x8 
 .text.sduDataReceived
                0x080043b0       0xec C:\Users\zerog\AppData\Local\Temp\APS_DIGITAL_CGG.elf.PLIgTd.ltrans0.ltrans.o
 *fill*         0x0800449c        0x4 
 .text.ibqReadTimeout
                0x080044a0      0x170 C:\Users\zerog\AppData\Local\Temp\APS_DIGITAL_CGG.elf.PLIgTd.ltrans0.ltrans.o
 .text._read    0x08004610        0xc C:\Users\zerog\AppData\Local\Temp\APS_DIGITAL_CGG.elf.PLIgTd.ltrans0.ltrans.o
 *fill*         0x0800461c        0x4 
 .text._readt   0x08004620        0x8 C:\Users\zerog\AppData\Local\Temp\APS_DIGITAL_CGG.elf.PLIgTd.ltrans0.ltrans.o
 *fill*         0x08004628        0x8 
 .text.obqWriteTimeout
                0x08004630      0x18c C:\Users\zerog\AppData\Local\Temp\APS_DIGITAL_CGG.elf.PLIgTd.ltrans0.ltrans.o
 *fill*         0x080047bc        0x4 
 .text._write   0x080047c0        0xc C:\Users\zerog\AppData\Local\Temp\APS_DIGITAL_CGG.elf.PLIgTd.ltrans0.ltrans.o
 *fill*         0x080047cc        0x4 
 .text._writet  0x080047d0        0x8 C:\Users\zerog\AppData\Local\Temp\APS_DIGITAL_CGG.elf.PLIgTd.ltrans0.ltrans.o
 *fill*         0x080047d8        0x8 
 .text.usbInitEndpointI
                0x080047e0       0x60 C:\Users\zerog\AppData\Local\Temp\APS_DIGITAL_CGG.elf.PLIgTd.ltrans0.ltrans.o
 .text.usb_event
                0x08004840      0x1f0 C:\Users\zerog\AppData\Local\Temp\APS_DIGITAL_CGG.elf.PLIgTd.ltrans0.ltrans.o
 .text.chprintf
                0x08004a30      0x5dc C:\Users\zerog\AppData\Local\Temp\APS_DIGITAL_CGG.elf.PLIgTd.ltrans0.ltrans.o
 *fill*         0x0800500c        0x4 
 .text.cmd_info
                0x08005010       0xbc C:\Users\zerog\AppData\Local\Temp\APS_DIGITAL_CGG.elf.PLIgTd.ltrans0.ltrans.o
 *fill*         0x080050cc        0x4 
 .text.cmd_echo
                0x080050d0       0x20 C:\Users\zerog\AppData\Local\Temp\APS_DIGITAL_CGG.elf.PLIgTd.ltrans0.ltrans.o
 .text.cmd_systime
                0x080050f0       0x24 C:\Users\zerog\AppData\Local\Temp\APS_DIGITAL_CGG.elf.PLIgTd.ltrans0.ltrans.o
 *fill*         0x08005114        0xc 
 .text.cmd_mem  0x08005120       0xa0 C:\Users\zerog\AppData\Local\Temp\APS_DIGITAL_CGG.elf.PLIgTd.ltrans0.ltrans.o
 .text.cmd_threads
                0x080051c0       0xe0 C:\Users\zerog\AppData\Local\Temp\APS_DIGITAL_CGG.elf.PLIgTd.ltrans0.ltrans.o
 .text.cmd_status
                0x080052a0       0x10 C:\Users\zerog\AppData\Local\Temp\APS_DIGITAL_CGG.elf.PLIgTd.ltrans0.ltrans.o
 .text.cmd_selftest
                0x080052b0       0x7c C:\Users\zerog\AppData\Local\Temp\APS_DIGITAL_CGG.elf.PLIgTd.ltrans0.ltrans.o
 *fill*         0x0800532c        0x4 
 .text.cmd_stop
                0x08005330        0xc C:\Users\zerog\AppData\Local\Temp\APS_DIGITAL_CGG.elf.PLIgTd.ltrans0.ltrans.o
 *fill*         0x0800533c        0x4 
 .text.cmd_reset
                0x08005340       0x34 C:\Users\zerog\AppData\Local\Temp\APS_DIGITAL_CGG.elf.PLIgTd.ltrans0.ltrans.o
 *fill*         0x08005374        0xc 
 .text.shellGetLine.constprop.0.isra.0
                0x08005380       0x8c C:\Users\zerog\AppData\Local\Temp\APS_DIGITAL_CGG.elf.PLIgTd.ltrans0.ltrans.o
 *fill*         0x0800540c        0x4 
 .text.parse_arguments
                0x08005410       0x58 C:\Users\zerog\AppData\Local\Temp\APS_DIGITAL_CGG.elf.PLIgTd.ltrans0.ltrans.o
 *fill*         0x08005468        0x8 
 .text.shellThread
                0x08005470      0x1e8 C:\Users\zerog\AppData\Local\Temp\APS_DIGITAL_CGG.elf.PLIgTd.ltrans0.ltrans.o
 *fill*         0x08005658        0x8 
 .text.dmaStreamAllocI.constprop.0
                0x08005660      0x104 C:\Users\zerog\AppData\Local\Temp\APS_DIGITAL_CGG.elf.PLIgTd.ltrans0.ltrans.o
 *fill*         0x08005764        0xc 
 .text.spiSend.isra.0
                0x08005770       0xf0 C:\Users\zerog\AppData\Local\Temp\APS_DIGITAL_CGG.elf.PLIgTd.ltrans0.ltrans.o
 .text.AD8460_SPIWriteRegister.constprop.0
                0x08005860       0x34 C:\Users\zerog\AppData\Local\Temp\APS_DIGITAL_CGG.elf.PLIgTd.ltrans0.ltrans.o
 *fill*         0x08005894        0xc 
 .text.Thread_DD
                0x080058a0      0x5a4 C:\Users\zerog\AppData\Local\Temp\APS_DIGITAL_CGG.elf.PLIgTd.ltrans0.ltrans.o
 *fill*         0x08005e44        0xc 
 .text.cmd_DD_test
                0x08005e50      0x5f8 C:\Users\zerog\AppData\Local\Temp\APS_DIGITAL_CGG.elf.PLIgTd.ltrans0.ltrans.o
 *fill*         0x08006448        0x8 
 .text.__cpu_init
                0x08006450        0x4 C:\Users\zerog\AppData\Local\Temp\APS_DIGITAL_CGG.elf.PLIgTd.ltrans0.ltrans.o
                0x08006450                __cpu_init
 *fill*         0x08006454        0xc 
 .text.__late_init
                0x08006460        0x4 C:\Users\zerog\AppData\Local\Temp\APS_DIGITAL_CGG.elf.PLIgTd.ltrans0.ltrans.o
                0x08006460                __late_init
 *fill*         0x08006464        0xc 
 .text.__default_exit
                0x08006470        0x4 C:\Users\zerog\AppData\Local\Temp\APS_DIGITAL_CGG.elf.PLIgTd.ltrans0.ltrans.o
                0x08006470                __default_exit
 *fill*         0x08006474        0xc 
 .text.__init_ram_areas
                0x08006480       0x6c C:\Users\zerog\AppData\Local\Temp\APS_DIGITAL_CGG.elf.PLIgTd.ltrans0.ltrans.o
                0x08006480                __init_ram_areas
 *fill*         0x080064ec        0x4 
 .text.__dbg_check_unlock
                0x080064f0       0x28 C:\Users\zerog\AppData\Local\Temp\APS_DIGITAL_CGG.elf.PLIgTd.ltrans0.ltrans.o
                0x080064f0                __dbg_check_unlock
 *fill*         0x08006518        0x8 
 .text.__stats_stop_measure_crit_thd
                0x08006520        0xc C:\Users\zerog\AppData\Local\Temp\APS_DIGITAL_CGG.elf.PLIgTd.ltrans0.ltrans.o
                0x08006520                __stats_stop_measure_crit_thd
 *fill*         0x0800652c        0x4 
 .text.chThdCreateFromHeap.constprop.0
                0x08006530      0x150 C:\Users\zerog\AppData\Local\Temp\APS_DIGITAL_CGG.elf.PLIgTd.ltrans0.ltrans.o
 .text.chThdCreateStatic.constprop.0.isra.0
                0x08006680      0x14c C:\Users\zerog\AppData\Local\Temp\APS_DIGITAL_CGG.elf.PLIgTd.ltrans0.ltrans.o
 *fill*         0x080067cc        0x4 
 .text.Vector58
                0x080067d0       0xf8 C:\Users\zerog\AppData\Local\Temp\APS_DIGITAL_CGG.elf.PLIgTd.ltrans0.ltrans.o
                0x080067d0                Vector58
 *fill*         0x080068c8        0x8 
 .text.Vector5C
                0x080068d0       0xfc C:\Users\zerog\AppData\Local\Temp\APS_DIGITAL_CGG.elf.PLIgTd.ltrans0.ltrans.o
                0x080068d0                Vector5C
 *fill*         0x080069cc        0x4 
 .text.Vector60
                0x080069d0       0xfc C:\Users\zerog\AppData\Local\Temp\APS_DIGITAL_CGG.elf.PLIgTd.ltrans0.ltrans.o
                0x080069d0                Vector60
 *fill*         0x08006acc        0x4 
 .text.Vector64
                0x08006ad0       0xfc C:\Users\zerog\AppData\Local\Temp\APS_DIGITAL_CGG.elf.PLIgTd.ltrans0.ltrans.o
                0x08006ad0                Vector64
 *fill*         0x08006bcc        0x4 
 .text.Vector68
                0x08006bd0       0xfc C:\Users\zerog\AppData\Local\Temp\APS_DIGITAL_CGG.elf.PLIgTd.ltrans0.ltrans.o
                0x08006bd0                Vector68
 *fill*         0x08006ccc        0x4 
 .text.Vector9C
                0x08006cd0      0x28c C:\Users\zerog\AppData\Local\Temp\APS_DIGITAL_CGG.elf.PLIgTd.ltrans0.ltrans.o
                0x08006cd0                Vector9C
 *fill*         0x08006f5c        0x4 
 .text.VectorE0
                0x08006f60      0x300 C:\Users\zerog\AppData\Local\Temp\APS_DIGITAL_CGG.elf.PLIgTd.ltrans0.ltrans.o
                0x08006f60                VectorE0
 .text.VectorD8
                0x08007260      0x37c C:\Users\zerog\AppData\Local\Temp\APS_DIGITAL_CGG.elf.PLIgTd.ltrans0.ltrans.o
                0x08007260                VectorD8
 *fill*         0x080075dc        0x4 
 .text.VectorB0
                0x080075e0      0x1ec C:\Users\zerog\AppData\Local\Temp\APS_DIGITAL_CGG.elf.PLIgTd.ltrans0.ltrans.o
                0x080075e0                VectorB0
 *fill*         0x080077cc        0x4 
 .text.VectorB8
                0x080077d0       0xb8 C:\Users\zerog\AppData\Local\Temp\APS_DIGITAL_CGG.elf.PLIgTd.ltrans0.ltrans.o
                0x080077d0                VectorB8
 *fill*         0x08007888        0x8 
 .text.Vector6C
                0x08007890       0x84 C:\Users\zerog\AppData\Local\Temp\APS_DIGITAL_CGG.elf.PLIgTd.ltrans0.ltrans.o
                0x08007890                Vector6C
 *fill*         0x08007914        0xc 
 .text.Vector70
                0x08007920       0x84 C:\Users\zerog\AppData\Local\Temp\APS_DIGITAL_CGG.elf.PLIgTd.ltrans0.ltrans.o
                0x08007920                Vector70
 *fill*         0x080079a4        0xc 
 .text.Vector74
                0x080079b0       0x84 C:\Users\zerog\AppData\Local\Temp\APS_DIGITAL_CGG.elf.PLIgTd.ltrans0.ltrans.o
                0x080079b0                Vector74
 *fill*         0x08007a34        0xc 
 .text.Vector78
                0x08007a40       0x84 C:\Users\zerog\AppData\Local\Temp\APS_DIGITAL_CGG.elf.PLIgTd.ltrans0.ltrans.o
                0x08007a40                Vector78
 *fill*         0x08007ac4        0xc 
 .text.Vector7C
                0x08007ad0       0x84 C:\Users\zerog\AppData\Local\Temp\APS_DIGITAL_CGG.elf.PLIgTd.ltrans0.ltrans.o
                0x08007ad0                Vector7C
 *fill*         0x08007b54        0xc 
 .text.Vector80
                0x08007b60       0x84 C:\Users\zerog\AppData\Local\Temp\APS_DIGITAL_CGG.elf.PLIgTd.ltrans0.ltrans.o
                0x08007b60                Vector80
 *fill*         0x08007be4        0xc 
 .text.Vector84
                0x08007bf0       0x84 C:\Users\zerog\AppData\Local\Temp\APS_DIGITAL_CGG.elf.PLIgTd.ltrans0.ltrans.o
                0x08007bf0                Vector84
 *fill*         0x08007c74        0xc 
 .text.Vector1C0
                0x08007c80       0x84 C:\Users\zerog\AppData\Local\Temp\APS_DIGITAL_CGG.elf.PLIgTd.ltrans0.ltrans.o
                0x08007c80                Vector1C0
 *fill*         0x08007d04        0xc 
 .text.Vector120
                0x08007d10       0x84 C:\Users\zerog\AppData\Local\Temp\APS_DIGITAL_CGG.elf.PLIgTd.ltrans0.ltrans.o
                0x08007d10                Vector120
 *fill*         0x08007d94        0xc 
 .text.Vector124
                0x08007da0       0x84 C:\Users\zerog\AppData\Local\Temp\APS_DIGITAL_CGG.elf.PLIgTd.ltrans0.ltrans.o
                0x08007da0                Vector124
 *fill*         0x08007e24        0xc 
 .text.Vector128
                0x08007e30       0x84 C:\Users\zerog\AppData\Local\Temp\APS_DIGITAL_CGG.elf.PLIgTd.ltrans0.ltrans.o
                0x08007e30                Vector128
 *fill*         0x08007eb4        0xc 
 .text.Vector12C
                0x08007ec0       0x84 C:\Users\zerog\AppData\Local\Temp\APS_DIGITAL_CGG.elf.PLIgTd.ltrans0.ltrans.o
                0x08007ec0                Vector12C
 *fill*         0x08007f44        0xc 
 .text.Vector130
                0x08007f50       0x84 C:\Users\zerog\AppData\Local\Temp\APS_DIGITAL_CGG.elf.PLIgTd.ltrans0.ltrans.o
                0x08007f50                Vector130
 *fill*         0x08007fd4        0xc 
 .text.Vector1C4
                0x08007fe0       0x84 C:\Users\zerog\AppData\Local\Temp\APS_DIGITAL_CGG.elf.PLIgTd.ltrans0.ltrans.o
                0x08007fe0                Vector1C4
 *fill*         0x08008064        0xc 
 .text.Vector1C8
                0x08008070       0x84 C:\Users\zerog\AppData\Local\Temp\APS_DIGITAL_CGG.elf.PLIgTd.ltrans0.ltrans.o
                0x08008070                Vector1C8
 *fill*         0x080080f4        0xc 
 .text.Vector1CC
                0x08008100       0x84 C:\Users\zerog\AppData\Local\Temp\APS_DIGITAL_CGG.elf.PLIgTd.ltrans0.ltrans.o
                0x08008100                Vector1CC
 *fill*         0x08008184        0xc 
 .text.Vector90
                0x08008190      0x39c C:\Users\zerog\AppData\Local\Temp\APS_DIGITAL_CGG.elf.PLIgTd.ltrans0.ltrans.o
                0x08008190                Vector90
 *fill*         0x0800852c        0x4 
 .text.__early_init
                0x08008530      0x268 C:\Users\zerog\AppData\Local\Temp\APS_DIGITAL_CGG.elf.PLIgTd.ltrans0.ltrans.o
                0x08008530                __early_init
 *fill*         0x08008798        0x8 
 .text.chThdExit
                0x080087a0       0x38 C:\Users\zerog\AppData\Local\Temp\APS_DIGITAL_CGG.elf.PLIgTd.ltrans0.ltrans.o
                0x080087a0                chThdExit
 *fill*         0x080087d8        0x8 
 .text.__port_schedule_next
                0x080087e0       0xa8 C:\Users\zerog\AppData\Local\Temp\APS_DIGITAL_CGG.elf.PLIgTd.ltrans0.ltrans.o
                0x080087e0                __port_schedule_next
 *fill*         0x08008888        0x8 
 .text._read_r  0x08008890        0xc C:\Users\zerog\AppData\Local\Temp\APS_DIGITAL_CGG.elf.PLIgTd.ltrans0.ltrans.o
                0x08008890                _read_r
 *fill*         0x0800889c        0x4 
 .text._lseek_r
                0x080088a0        0x4 C:\Users\zerog\AppData\Local\Temp\APS_DIGITAL_CGG.elf.PLIgTd.ltrans0.ltrans.o
                0x080088a0                _lseek_r
 *fill*         0x080088a4        0xc 
 .text._write_r
                0x080088b0        0x4 C:\Users\zerog\AppData\Local\Temp\APS_DIGITAL_CGG.elf.PLIgTd.ltrans0.ltrans.o
                0x080088b0                _write_r
 *fill*         0x080088b4        0xc 
 .text._close_r
                0x080088c0        0x4 C:\Users\zerog\AppData\Local\Temp\APS_DIGITAL_CGG.elf.PLIgTd.ltrans0.ltrans.o
                0x080088c0                _close_r
 *fill*         0x080088c4        0xc 
 .text._sbrk_r  0x080088d0       0x94 C:\Users\zerog\AppData\Local\Temp\APS_DIGITAL_CGG.elf.PLIgTd.ltrans0.ltrans.o
                0x080088d0                _sbrk_r
 *fill*         0x08008964        0xc 
 .text._fstat_r
                0x08008970       0x18 C:\Users\zerog\AppData\Local\Temp\APS_DIGITAL_CGG.elf.PLIgTd.ltrans0.ltrans.o
                0x08008970                _fstat_r
 *fill*         0x08008988        0x8 
 .text._isatty_r
                0x08008990        0x4 C:\Users\zerog\AppData\Local\Temp\APS_DIGITAL_CGG.elf.PLIgTd.ltrans0.ltrans.o
                0x08008990                _isatty_r
 *fill*         0x08008994        0xc 
 .text._exit    0x080089a0        0xc C:\Users\zerog\AppData\Local\Temp\APS_DIGITAL_CGG.elf.PLIgTd.ltrans0.ltrans.o
                0x080089a0                _exit
 *fill*         0x080089ac        0x4 
 .text._kill    0x080089b0        0xc C:\Users\zerog\AppData\Local\Temp\APS_DIGITAL_CGG.elf.PLIgTd.ltrans0.ltrans.o
                0x080089b0                _kill
 *fill*         0x080089bc        0x4 
 .text._getpid  0x080089c0        0x4 C:\Users\zerog\AppData\Local\Temp\APS_DIGITAL_CGG.elf.PLIgTd.ltrans0.ltrans.o
                0x080089c0                _getpid
 *fill*         0x080089c4        0xc 
 .text.startup.main
                0x080089d0      0xcd8 C:\Users\zerog\AppData\Local\Temp\APS_DIGITAL_CGG.elf.PLIgTd.ltrans0.ltrans.o
                0x080089d0                main
 .text.round    0x080096a8       0x94 c:/chibistudio/tools/gnu tools arm embedded/10.3 2021.07/bin/../lib/gcc/arm-none-eabi/10.3.1/../../../../arm-none-eabi/lib/thumb/v7e-m/nofp\libm.a(lib_a-s_round.o)
                0x080096a8                round
 .text.exp2     0x0800973c       0x10 c:/chibistudio/tools/gnu tools arm embedded/10.3 2021.07/bin/../lib/gcc/arm-none-eabi/10.3.1/../../../../arm-none-eabi/lib/thumb/v7e-m/nofp\libm.a(lib_a-w_exp2.o)
                0x0800973c                exp2
 .text.log      0x0800974c       0x68 c:/chibistudio/tools/gnu tools arm embedded/10.3 2021.07/bin/../lib/gcc/arm-none-eabi/10.3.1/../../../../arm-none-eabi/lib/thumb/v7e-m/nofp\libm.a(lib_a-w_log.o)
                0x0800974c                log
 .text.pow      0x080097b4       0xdc c:/chibistudio/tools/gnu tools arm embedded/10.3 2021.07/bin/../lib/gcc/arm-none-eabi/10.3.1/../../../../arm-none-eabi/lib/thumb/v7e-m/nofp\libm.a(lib_a-w_pow.o)
                0x080097b4                pow
 .text.__ieee754_log
                0x08009890      0x400 c:/chibistudio/tools/gnu tools arm embedded/10.3 2021.07/bin/../lib/gcc/arm-none-eabi/10.3.1/../../../../arm-none-eabi/lib/thumb/v7e-m/nofp\libm.a(lib_a-e_log.o)
                0x08009890                __ieee754_log
 .text.__ieee754_pow
                0x08009c90      0xad8 c:/chibistudio/tools/gnu tools arm embedded/10.3 2021.07/bin/../lib/gcc/arm-none-eabi/10.3.1/../../../../arm-none-eabi/lib/thumb/v7e-m/nofp\libm.a(lib_a-e_pow.o)
                0x08009c90                __ieee754_pow
 .text.__ieee754_sqrt
                0x0800a768      0x18c c:/chibistudio/tools/gnu tools arm embedded/10.3 2021.07/bin/../lib/gcc/arm-none-eabi/10.3.1/../../../../arm-none-eabi/lib/thumb/v7e-m/nofp\libm.a(lib_a-e_sqrt.o)
                0x0800a768                __ieee754_sqrt
 .text.with_errno
                0x0800a8f4       0x18 c:/chibistudio/tools/gnu tools arm embedded/10.3 2021.07/bin/../lib/gcc/arm-none-eabi/10.3.1/../../../../arm-none-eabi/lib/thumb/v7e-m/nofp\libm.a(lib_a-math_err.o)
 .text.xflow    0x0800a90c       0x30 c:/chibistudio/tools/gnu tools arm embedded/10.3 2021.07/bin/../lib/gcc/arm-none-eabi/10.3.1/../../../../arm-none-eabi/lib/thumb/v7e-m/nofp\libm.a(lib_a-math_err.o)
 .text.__math_uflow
                0x0800a93c        0xc c:/chibistudio/tools/gnu tools arm embedded/10.3 2021.07/bin/../lib/gcc/arm-none-eabi/10.3.1/../../../../arm-none-eabi/lib/thumb/v7e-m/nofp\libm.a(lib_a-math_err.o)
                0x0800a93c                __math_uflow
 .text.__math_oflow
                0x0800a948        0xc c:/chibistudio/tools/gnu tools arm embedded/10.3 2021.07/bin/../lib/gcc/arm-none-eabi/10.3.1/../../../../arm-none-eabi/lib/thumb/v7e-m/nofp\libm.a(lib_a-math_err.o)
                0x0800a948                __math_oflow
 .text.fabs     0x0800a954        0x8 c:/chibistudio/tools/gnu tools arm embedded/10.3 2021.07/bin/../lib/gcc/arm-none-eabi/10.3.1/../../../../arm-none-eabi/lib/thumb/v7e-m/nofp\libm.a(lib_a-s_fabs.o)
                0x0800a954                fabs
 .text.finite   0x0800a95c        0xc c:/chibistudio/tools/gnu tools arm embedded/10.3 2021.07/bin/../lib/gcc/arm-none-eabi/10.3.1/../../../../arm-none-eabi/lib/thumb/v7e-m/nofp\libm.a(lib_a-s_finite.o)
                0x0800a95c                finite
 .text.nan      0x0800a968        0xc c:/chibistudio/tools/gnu tools arm embedded/10.3 2021.07/bin/../lib/gcc/arm-none-eabi/10.3.1/../../../../arm-none-eabi/lib/thumb/v7e-m/nofp\libm.a(lib_a-s_nan.o)
                0x0800a968                nan
 *fill*         0x0800a974        0x4 
 .text.scalbn   0x0800a978       0xf4 c:/chibistudio/tools/gnu tools arm embedded/10.3 2021.07/bin/../lib/gcc/arm-none-eabi/10.3.1/../../../../arm-none-eabi/lib/thumb/v7e-m/nofp\libm.a(lib_a-s_scalbn.o)
                0x0800a978                scalbn
 .text.__errno  0x0800aa6c        0xc c:/chibistudio/tools/gnu tools arm embedded/10.3 2021.07/bin/../lib/gcc/arm-none-eabi/10.3.1/../../../../arm-none-eabi/lib/thumb/v7e-m/nofp\libg.a(lib_a-errno.o)
                0x0800aa6c                __errno
 .text._strtod_l
                0x0800aa78      0xf30 c:/chibistudio/tools/gnu tools arm embedded/10.3 2021.07/bin/../lib/gcc/arm-none-eabi/10.3.1/../../../../arm-none-eabi/lib/thumb/v7e-m/nofp\libg.a(lib_a-strtod.o)
                0x0800aa78                _strtod_l
 .text.strtof   0x0800b9a8       0xa0 c:/chibistudio/tools/gnu tools arm embedded/10.3 2021.07/bin/../lib/gcc/arm-none-eabi/10.3.1/../../../../arm-none-eabi/lib/thumb/v7e-m/nofp\libg.a(lib_a-strtod.o)
                0x0800b9a8                strtof
 .text.rshift   0x0800ba48       0xa4 c:/chibistudio/tools/gnu tools arm embedded/10.3 2021.07/bin/../lib/gcc/arm-none-eabi/10.3.1/../../../../arm-none-eabi/lib/thumb/v7e-m/nofp\libg.a(lib_a-gdtoa-gethex.o)
 .text.__gethex
                0x0800baec      0x5bc c:/chibistudio/tools/gnu tools arm embedded/10.3 2021.07/bin/../lib/gcc/arm-none-eabi/10.3.1/../../../../arm-none-eabi/lib/thumb/v7e-m/nofp\libg.a(lib_a-gdtoa-gethex.o)
                0x0800baec                __gethex
 .text.__match  0x0800c0a8       0x34 c:/chibistudio/tools/gnu tools arm embedded/10.3 2021.07/bin/../lib/gcc/arm-none-eabi/10.3.1/../../../../arm-none-eabi/lib/thumb/v7e-m/nofp\libg.a(lib_a-gdtoa-hexnan.o)
                0x0800c0a8                __match
 .text.__hexnan
                0x0800c0dc      0x1ac c:/chibistudio/tools/gnu tools arm embedded/10.3 2021.07/bin/../lib/gcc/arm-none-eabi/10.3.1/../../../../arm-none-eabi/lib/thumb/v7e-m/nofp\libg.a(lib_a-gdtoa-hexnan.o)
                0x0800c0dc                __hexnan
 .text.__locale_mb_cur_max
                0x0800c288        0xc c:/chibistudio/tools/gnu tools arm embedded/10.3 2021.07/bin/../lib/gcc/arm-none-eabi/10.3.1/../../../../arm-none-eabi/lib/thumb/v7e-m/nofp\libg.a(lib_a-locale.o)
                0x0800c288                __locale_mb_cur_max
 .text.__ascii_mbtowc
                0x0800c294       0x2c c:/chibistudio/tools/gnu tools arm embedded/10.3 2021.07/bin/../lib/gcc/arm-none-eabi/10.3.1/../../../../arm-none-eabi/lib/thumb/v7e-m/nofp\libg.a(lib_a-mbtowc_r.o)
                0x0800c294                __ascii_mbtowc
 .text._Balloc  0x0800c2c0       0x4c c:/chibistudio/tools/gnu tools arm embedded/10.3 2021.07/bin/../lib/gcc/arm-none-eabi/10.3.1/../../../../arm-none-eabi/lib/thumb/v7e-m/nofp\libg.a(lib_a-mprec.o)
                0x0800c2c0                _Balloc
 .text._Bfree   0x0800c30c       0x14 c:/chibistudio/tools/gnu tools arm embedded/10.3 2021.07/bin/../lib/gcc/arm-none-eabi/10.3.1/../../../../arm-none-eabi/lib/thumb/v7e-m/nofp\libg.a(lib_a-mprec.o)
                0x0800c30c                _Bfree
 .text.__multadd
                0x0800c320       0xa0 c:/chibistudio/tools/gnu tools arm embedded/10.3 2021.07/bin/../lib/gcc/arm-none-eabi/10.3.1/../../../../arm-none-eabi/lib/thumb/v7e-m/nofp\libg.a(lib_a-mprec.o)
                0x0800c320                __multadd
 .text.__s2b    0x0800c3c0       0xb4 c:/chibistudio/tools/gnu tools arm embedded/10.3 2021.07/bin/../lib/gcc/arm-none-eabi/10.3.1/../../../../arm-none-eabi/lib/thumb/v7e-m/nofp\libg.a(lib_a-mprec.o)
                0x0800c3c0                __s2b
 .text.__hi0bits
                0x0800c474       0x40 c:/chibistudio/tools/gnu tools arm embedded/10.3 2021.07/bin/../lib/gcc/arm-none-eabi/10.3.1/../../../../arm-none-eabi/lib/thumb/v7e-m/nofp\libg.a(lib_a-mprec.o)
                0x0800c474                __hi0bits
 .text.__lo0bits
                0x0800c4b4       0x5c c:/chibistudio/tools/gnu tools arm embedded/10.3 2021.07/bin/../lib/gcc/arm-none-eabi/10.3.1/../../../../arm-none-eabi/lib/thumb/v7e-m/nofp\libg.a(lib_a-mprec.o)
                0x0800c4b4                __lo0bits
 .text.__i2b    0x0800c510       0x5c c:/chibistudio/tools/gnu tools arm embedded/10.3 2021.07/bin/../lib/gcc/arm-none-eabi/10.3.1/../../../../arm-none-eabi/lib/thumb/v7e-m/nofp\libg.a(lib_a-mprec.o)
                0x0800c510                __i2b
 .text.__multiply
                0x0800c56c      0x15c c:/chibistudio/tools/gnu tools arm embedded/10.3 2021.07/bin/../lib/gcc/arm-none-eabi/10.3.1/../../../../arm-none-eabi/lib/thumb/v7e-m/nofp\libg.a(lib_a-mprec.o)
                0x0800c56c                __multiply
 .text.__pow5mult
                0x0800c6c8       0xc0 c:/chibistudio/tools/gnu tools arm embedded/10.3 2021.07/bin/../lib/gcc/arm-none-eabi/10.3.1/../../../../arm-none-eabi/lib/thumb/v7e-m/nofp\libg.a(lib_a-mprec.o)
                0x0800c6c8                __pow5mult
 .text.__lshift
                0x0800c788       0xf0 c:/chibistudio/tools/gnu tools arm embedded/10.3 2021.07/bin/../lib/gcc/arm-none-eabi/10.3.1/../../../../arm-none-eabi/lib/thumb/v7e-m/nofp\libg.a(lib_a-mprec.o)
                0x0800c788                __lshift
 .text.__mcmp   0x0800c878       0x40 c:/chibistudio/tools/gnu tools arm embedded/10.3 2021.07/bin/../lib/gcc/arm-none-eabi/10.3.1/../../../../arm-none-eabi/lib/thumb/v7e-m/nofp\libg.a(lib_a-mprec.o)
                0x0800c878                __mcmp
 .text.__mdiff  0x0800c8b8      0x14c c:/chibistudio/tools/gnu tools arm embedded/10.3 2021.07/bin/../lib/gcc/arm-none-eabi/10.3.1/../../../../arm-none-eabi/lib/thumb/v7e-m/nofp\libg.a(lib_a-mprec.o)
                0x0800c8b8                __mdiff
 .text.__ulp    0x0800ca04       0x44 c:/chibistudio/tools/gnu tools arm embedded/10.3 2021.07/bin/../lib/gcc/arm-none-eabi/10.3.1/../../../../arm-none-eabi/lib/thumb/v7e-m/nofp\libg.a(lib_a-mprec.o)
                0x0800ca04                __ulp
 .text.__b2d    0x0800ca48       0xd0 c:/chibistudio/tools/gnu tools arm embedded/10.3 2021.07/bin/../lib/gcc/arm-none-eabi/10.3.1/../../../../arm-none-eabi/lib/thumb/v7e-m/nofp\libg.a(lib_a-mprec.o)
                0x0800ca48                __b2d
 .text.__d2b    0x0800cb18       0xc4 c:/chibistudio/tools/gnu tools arm embedded/10.3 2021.07/bin/../lib/gcc/arm-none-eabi/10.3.1/../../../../arm-none-eabi/lib/thumb/v7e-m/nofp\libg.a(lib_a-mprec.o)
                0x0800cb18                __d2b
 .text.__ratio  0x0800cbdc       0x5c c:/chibistudio/tools/gnu tools arm embedded/10.3 2021.07/bin/../lib/gcc/arm-none-eabi/10.3.1/../../../../arm-none-eabi/lib/thumb/v7e-m/nofp\libg.a(lib_a-mprec.o)
                0x0800cbdc                __ratio
 .text.__copybits
                0x0800cc38       0x5c c:/chibistudio/tools/gnu tools arm embedded/10.3 2021.07/bin/../lib/gcc/arm-none-eabi/10.3.1/../../../../arm-none-eabi/lib/thumb/v7e-m/nofp\libg.a(lib_a-mprec.o)
                0x0800cc38                __copybits
 .text.__any_on
                0x0800cc94       0x60 c:/chibistudio/tools/gnu tools arm embedded/10.3 2021.07/bin/../lib/gcc/arm-none-eabi/10.3.1/../../../../arm-none-eabi/lib/thumb/v7e-m/nofp\libg.a(lib_a-mprec.o)
                0x0800cc94                __any_on
 .text.nanf     0x0800ccf4        0x8 c:/chibistudio/tools/gnu tools arm embedded/10.3 2021.07/bin/../lib/gcc/arm-none-eabi/10.3.1/../../../../arm-none-eabi/lib/thumb/v7e-m/nofp\libg.a(lib_a-sf_nan.o)
                0x0800ccf4                nanf
 .text.strncmp  0x0800ccfc       0x80 c:/chibistudio/tools/gnu tools arm embedded/10.3 2021.07/bin/../lib/gcc/arm-none-eabi/10.3.1/../../../../arm-none-eabi/lib/thumb/v7e-m/nofp\libg.a(lib_a-strncmp.o)
                0x0800ccfc                strncmp
 .text.__ascii_wctomb
                0x0800cd7c       0x1c c:/chibistudio/tools/gnu tools arm embedded/10.3 2021.07/bin/../lib/gcc/arm-none-eabi/10.3.1/../../../../arm-none-eabi/lib/thumb/v7e-m/nofp\libg.a(lib_a-wctomb_r.o)
                0x0800cd7c                __ascii_wctomb
 .text.__assert_func
                0x0800cd98       0x40 c:/chibistudio/tools/gnu tools arm embedded/10.3 2021.07/bin/../lib/gcc/arm-none-eabi/10.3.1/../../../../arm-none-eabi/lib/thumb/v7e-m/nofp\libg.a(lib_a-assert.o)
                0x0800cd98                __assert_func
 .text._calloc_r
                0x0800cdd8       0x78 c:/chibistudio/tools/gnu tools arm embedded/10.3 2021.07/bin/../lib/gcc/arm-none-eabi/10.3.1/../../../../arm-none-eabi/lib/thumb/v7e-m/nofp\libg.a(lib_a-callocr.o)
                0x0800cdd8                _calloc_r
 .text.fiprintf
                0x0800ce50       0x28 c:/chibistudio/tools/gnu tools arm embedded/10.3 2021.07/bin/../lib/gcc/arm-none-eabi/10.3.1/../../../../arm-none-eabi/lib/thumb/v7e-m/nofp\libg.a(lib_a-fiprintf.o)
                0x0800ce50                fiprintf
 .text._malloc_r
                0x0800ce78      0x560 c:/chibistudio/tools/gnu tools arm embedded/10.3 2021.07/bin/../lib/gcc/arm-none-eabi/10.3.1/../../../../arm-none-eabi/lib/thumb/v7e-m/nofp\libg.a(lib_a-mallocr.o)
                0x0800ce78                _malloc_r
 .text.memset   0x0800d3d8       0xa4 c:/chibistudio/tools/gnu tools arm embedded/10.3 2021.07/bin/../lib/gcc/arm-none-eabi/10.3.1/../../../../arm-none-eabi/lib/thumb/v7e-m/nofp\libg.a(lib_a-memset.o)
                0x0800d3d8                memset
 .text.__malloc_lock
                0x0800d47c        0xc c:/chibistudio/tools/gnu tools arm embedded/10.3 2021.07/bin/../lib/gcc/arm-none-eabi/10.3.1/../../../../arm-none-eabi/lib/thumb/v7e-m/nofp\libg.a(lib_a-mlock.o)
                0x0800d47c                __malloc_lock
 .text.__malloc_unlock
                0x0800d488        0xc c:/chibistudio/tools/gnu tools arm embedded/10.3 2021.07/bin/../lib/gcc/arm-none-eabi/10.3.1/../../../../arm-none-eabi/lib/thumb/v7e-m/nofp\libg.a(lib_a-mlock.o)
                0x0800d488                __malloc_unlock
 .text.__sprint_r.part.0
                0x0800d494       0x78 c:/chibistudio/tools/gnu tools arm embedded/10.3 2021.07/bin/../lib/gcc/arm-none-eabi/10.3.1/../../../../arm-none-eabi/lib/thumb/v7e-m/nofp\libg.a(lib_a-vfiprintf.o)
 .text._vfiprintf_r
                0x0800d50c      0xda0 c:/chibistudio/tools/gnu tools arm embedded/10.3 2021.07/bin/../lib/gcc/arm-none-eabi/10.3.1/../../../../arm-none-eabi/lib/thumb/v7e-m/nofp\libg.a(lib_a-vfiprintf.o)
                0x0800d50c                _vfiprintf_r
 .text.__sbprintf
                0x0800e2ac       0x80 c:/chibistudio/tools/gnu tools arm embedded/10.3 2021.07/bin/../lib/gcc/arm-none-eabi/10.3.1/../../../../arm-none-eabi/lib/thumb/v7e-m/nofp\libg.a(lib_a-vfiprintf.o)
 .text.__swsetup_r
                0x0800e32c       0xd4 c:/chibistudio/tools/gnu tools arm embedded/10.3 2021.07/bin/../lib/gcc/arm-none-eabi/10.3.1/../../../../arm-none-eabi/lib/thumb/v7e-m/nofp\libg.a(lib_a-wsetup.o)
                0x0800e32c                __swsetup_r
 .text.abort    0x0800e400       0x10 c:/chibistudio/tools/gnu tools arm embedded/10.3 2021.07/bin/../lib/gcc/arm-none-eabi/10.3.1/../../../../arm-none-eabi/lib/thumb/v7e-m/nofp\libg.a(lib_a-abort.o)
                0x0800e400                abort
 .text.__sflush_r
                0x0800e410      0x120 c:/chibistudio/tools/gnu tools arm embedded/10.3 2021.07/bin/../lib/gcc/arm-none-eabi/10.3.1/../../../../arm-none-eabi/lib/thumb/v7e-m/nofp\libg.a(lib_a-fflush.o)
                0x0800e410                __sflush_r
 .text._fflush_r
                0x0800e530       0x5c c:/chibistudio/tools/gnu tools arm embedded/10.3 2021.07/bin/../lib/gcc/arm-none-eabi/10.3.1/../../../../arm-none-eabi/lib/thumb/v7e-m/nofp\libg.a(lib_a-fflush.o)
                0x0800e530                _fflush_r
 .text._cleanup_r
                0x0800e58c        0xc c:/chibistudio/tools/gnu tools arm embedded/10.3 2021.07/bin/../lib/gcc/arm-none-eabi/10.3.1/../../../../arm-none-eabi/lib/thumb/v7e-m/nofp\libg.a(lib_a-findfp.o)
                0x0800e58c                _cleanup_r
 .text.__sinit  0x0800e598      0x10c c:/chibistudio/tools/gnu tools arm embedded/10.3 2021.07/bin/../lib/gcc/arm-none-eabi/10.3.1/../../../../arm-none-eabi/lib/thumb/v7e-m/nofp\libg.a(lib_a-findfp.o)
                0x0800e598                __sinit
 .text.__sfp_lock_acquire
                0x0800e6a4        0xc c:/chibistudio/tools/gnu tools arm embedded/10.3 2021.07/bin/../lib/gcc/arm-none-eabi/10.3.1/../../../../arm-none-eabi/lib/thumb/v7e-m/nofp\libg.a(lib_a-findfp.o)
                0x0800e6a4                __sfp_lock_acquire
 .text.__sfp_lock_release
                0x0800e6b0        0xc c:/chibistudio/tools/gnu tools arm embedded/10.3 2021.07/bin/../lib/gcc/arm-none-eabi/10.3.1/../../../../arm-none-eabi/lib/thumb/v7e-m/nofp\libg.a(lib_a-findfp.o)
                0x0800e6b0                __sfp_lock_release
 .text.__fputwc
                0x0800e6bc       0xa8 c:/chibistudio/tools/gnu tools arm embedded/10.3 2021.07/bin/../lib/gcc/arm-none-eabi/10.3.1/../../../../arm-none-eabi/lib/thumb/v7e-m/nofp\libg.a(lib_a-fputwc.o)
                0x0800e6bc                __fputwc
 .text._fputwc_r
                0x0800e764       0x68 c:/chibistudio/tools/gnu tools arm embedded/10.3 2021.07/bin/../lib/gcc/arm-none-eabi/10.3.1/../../../../arm-none-eabi/lib/thumb/v7e-m/nofp\libg.a(lib_a-fputwc.o)
                0x0800e764                _fputwc_r
 .text._malloc_trim_r
                0x0800e7cc       0xa0 c:/chibistudio/tools/gnu tools arm embedded/10.3 2021.07/bin/../lib/gcc/arm-none-eabi/10.3.1/../../../../arm-none-eabi/lib/thumb/v7e-m/nofp\libg.a(lib_a-freer.o)
                0x0800e7cc                _malloc_trim_r
 .text._free_r  0x0800e86c      0x20c c:/chibistudio/tools/gnu tools arm embedded/10.3 2021.07/bin/../lib/gcc/arm-none-eabi/10.3.1/../../../../arm-none-eabi/lib/thumb/v7e-m/nofp\libg.a(lib_a-freer.o)
                0x0800e86c                _free_r
 .text.__sfvwrite_r
                0x0800ea78      0x2e8 c:/chibistudio/tools/gnu tools arm embedded/10.3 2021.07/bin/../lib/gcc/arm-none-eabi/10.3.1/../../../../arm-none-eabi/lib/thumb/v7e-m/nofp\libg.a(lib_a-fvwrite.o)
                0x0800ea78                __sfvwrite_r
 .text._fwalk_reent
                0x0800ed60       0x48 c:/chibistudio/tools/gnu tools arm embedded/10.3 2021.07/bin/../lib/gcc/arm-none-eabi/10.3.1/../../../../arm-none-eabi/lib/thumb/v7e-m/nofp\libg.a(lib_a-fwalk.o)
                0x0800ed60                _fwalk_reent
 .text._localeconv_r
                0x0800eda8        0x8 c:/chibistudio/tools/gnu tools arm embedded/10.3 2021.07/bin/../lib/gcc/arm-none-eabi/10.3.1/../../../../arm-none-eabi/lib/thumb/v7e-m/nofp\libg.a(lib_a-localeconv.o)
                0x0800eda8                _localeconv_r
 .text.__retarget_lock_init_recursive
                0x0800edb0        0x4 c:/chibistudio/tools/gnu tools arm embedded/10.3 2021.07/bin/../lib/gcc/arm-none-eabi/10.3.1/../../../../arm-none-eabi/lib/thumb/v7e-m/nofp\libg.a(lib_a-lock.o)
                0x0800edb0                __retarget_lock_init_recursive
 .text.__retarget_lock_close_recursive
                0x0800edb4        0x4 c:/chibistudio/tools/gnu tools arm embedded/10.3 2021.07/bin/../lib/gcc/arm-none-eabi/10.3.1/../../../../arm-none-eabi/lib/thumb/v7e-m/nofp\libg.a(lib_a-lock.o)
                0x0800edb4                __retarget_lock_close_recursive
 .text.__retarget_lock_acquire_recursive
                0x0800edb8        0x4 c:/chibistudio/tools/gnu tools arm embedded/10.3 2021.07/bin/../lib/gcc/arm-none-eabi/10.3.1/../../../../arm-none-eabi/lib/thumb/v7e-m/nofp\libg.a(lib_a-lock.o)
                0x0800edb8                __retarget_lock_acquire_recursive
 .text.__retarget_lock_release_recursive
                0x0800edbc        0x4 c:/chibistudio/tools/gnu tools arm embedded/10.3 2021.07/bin/../lib/gcc/arm-none-eabi/10.3.1/../../../../arm-none-eabi/lib/thumb/v7e-m/nofp\libg.a(lib_a-lock.o)
                0x0800edbc                __retarget_lock_release_recursive
 .text.__smakebuf_r
                0x0800edc0       0xe0 c:/chibistudio/tools/gnu tools arm embedded/10.3 2021.07/bin/../lib/gcc/arm-none-eabi/10.3.1/../../../../arm-none-eabi/lib/thumb/v7e-m/nofp\libg.a(lib_a-makebuf.o)
                0x0800edc0                __smakebuf_r
 .text.memmove  0x0800eea0       0xf8 c:/chibistudio/tools/gnu tools arm embedded/10.3 2021.07/bin/../lib/gcc/arm-none-eabi/10.3.1/../../../../arm-none-eabi/lib/thumb/v7e-m/nofp\libg.a(lib_a-memmove.o)
                0x0800eea0                memmove
 .text._realloc_r
                0x0800ef98      0x3d8 c:/chibistudio/tools/gnu tools arm embedded/10.3 2021.07/bin/../lib/gcc/arm-none-eabi/10.3.1/../../../../arm-none-eabi/lib/thumb/v7e-m/nofp\libg.a(lib_a-reallocr.o)
                0x0800ef98                _realloc_r
 .text.raise    0x0800f370       0x5c c:/chibistudio/tools/gnu tools arm embedded/10.3 2021.07/bin/../lib/gcc/arm-none-eabi/10.3.1/../../../../arm-none-eabi/lib/thumb/v7e-m/nofp\libg.a(lib_a-signal.o)
                0x0800f370                raise
 .text._kill_r  0x0800f3cc       0x2c c:/chibistudio/tools/gnu tools arm embedded/10.3 2021.07/bin/../lib/gcc/arm-none-eabi/10.3.1/../../../../arm-none-eabi/lib/thumb/v7e-m/nofp\libg.a(lib_a-signalr.o)
                0x0800f3cc                _kill_r
 .text._getpid_r
                0x0800f3f8        0x4 c:/chibistudio/tools/gnu tools arm embedded/10.3 2021.07/bin/../lib/gcc/arm-none-eabi/10.3.1/../../../../arm-none-eabi/lib/thumb/v7e-m/nofp\libg.a(lib_a-signalr.o)
                0x0800f3f8                _getpid_r
 .text.__sread  0x0800f3fc       0x24 c:/chibistudio/tools/gnu tools arm embedded/10.3 2021.07/bin/../lib/gcc/arm-none-eabi/10.3.1/../../../../arm-none-eabi/lib/thumb/v7e-m/nofp\libg.a(lib_a-stdio.o)
                0x0800f3fc                __sread
 .text.__swrite
                0x0800f420       0x40 c:/chibistudio/tools/gnu tools arm embedded/10.3 2021.07/bin/../lib/gcc/arm-none-eabi/10.3.1/../../../../arm-none-eabi/lib/thumb/v7e-m/nofp\libg.a(lib_a-stdio.o)
                0x0800f420                __swrite
 .text.__sseek  0x0800f460       0x20 c:/chibistudio/tools/gnu tools arm embedded/10.3 2021.07/bin/../lib/gcc/arm-none-eabi/10.3.1/../../../../arm-none-eabi/lib/thumb/v7e-m/nofp\libg.a(lib_a-stdio.o)
                0x0800f460                __sseek
 .text.__sclose
                0x0800f480        0x8 c:/chibistudio/tools/gnu tools arm embedded/10.3 2021.07/bin/../lib/gcc/arm-none-eabi/10.3.1/../../../../arm-none-eabi/lib/thumb/v7e-m/nofp\libg.a(lib_a-stdio.o)
                0x0800f480                __sclose
 .text.strncpy  0x0800f488       0x64 c:/chibistudio/tools/gnu tools arm embedded/10.3 2021.07/bin/../lib/gcc/arm-none-eabi/10.3.1/../../../../arm-none-eabi/lib/thumb/v7e-m/nofp\libg.a(lib_a-strncpy.o)
                0x0800f488                strncpy
 .text.__swbuf_r
                0x0800f4ec       0xb0 c:/chibistudio/tools/gnu tools arm embedded/10.3 2021.07/bin/../lib/gcc/arm-none-eabi/10.3.1/../../../../arm-none-eabi/lib/thumb/v7e-m/nofp\libg.a(lib_a-wbuf.o)
                0x0800f4ec                __swbuf_r
 .text._wcrtomb_r
                0x0800f59c       0x3c c:/chibistudio/tools/gnu tools arm embedded/10.3 2021.07/bin/../lib/gcc/arm-none-eabi/10.3.1/../../../../arm-none-eabi/lib/thumb/v7e-m/nofp\libg.a(lib_a-wcrtomb.o)
                0x0800f59c                _wcrtomb_r
 .text._fclose_r
                0x0800f5d8       0xcc c:/chibistudio/tools/gnu tools arm embedded/10.3 2021.07/bin/../lib/gcc/arm-none-eabi/10.3.1/../../../../arm-none-eabi/lib/thumb/v7e-m/nofp\libg.a(lib_a-fclose.o)
                0x0800f5d8                _fclose_r
 .text.strcasecmp
                0x0800f6a4       0x4c c:/chibistudio/tools/gnu tools arm embedded/10.3 2021.07/bin/../lib/gcc/arm-none-eabi/10.3.1/../../../../arm-none-eabi/lib/thumb/v7e-m/nofp\libg.a(lib_a-strcasecmp.o)
                0x0800f6a4                strcasecmp
 .text.strchr   0x0800f6f0       0xcc c:/chibistudio/tools/gnu tools arm embedded/10.3 2021.07/bin/../lib/gcc/arm-none-eabi/10.3.1/../../../../arm-none-eabi/lib/thumb/v7e-m/nofp\libg.a(lib_a-strchr.o)
                0x0800f6f0                strchr
 .text.strpbrk  0x0800f7bc       0x38 c:/chibistudio/tools/gnu tools arm embedded/10.3 2021.07/bin/../lib/gcc/arm-none-eabi/10.3.1/../../../../arm-none-eabi/lib/thumb/v7e-m/nofp\libg.a(lib_a-strpbrk.o)
                0x0800f7bc                strpbrk
 .text.strspn   0x0800f7f4       0x30 c:/chibistudio/tools/gnu tools arm embedded/10.3 2021.07/bin/../lib/gcc/arm-none-eabi/10.3.1/../../../../arm-none-eabi/lib/thumb/v7e-m/nofp\libg.a(lib_a-strspn.o)
                0x0800f7f4                strspn
 *(.glue_7t)
 .glue_7t       0x0800f824        0x0 linker stubs
 *(.glue_7)
 .glue_7        0x0800f824        0x0 linker stubs
 *(.gcc*)
                0x0800f824                __text_end__ = .

.vfp11_veneer   0x0800f824        0x0
 .vfp11_veneer  0x0800f824        0x0 linker stubs

.v4_bx          0x0800f824        0x0
 .v4_bx         0x0800f824        0x0 linker stubs

.iplt           0x0800f824        0x0
 .iplt          0x0800f824        0x0 ./build/obj/crt0_v7m.o

.rodata         0x0800f828     0x1874
                0x0800f828                __rodata_base__ = .
 *(.rodata)
 .rodata        0x0800f828       0x18 C:\Users\zerog\AppData\Local\Temp\APS_DIGITAL_CGG.elf.PLIgTd.ltrans0.ltrans.o
 *(.rodata.*)
 .rodata.ibqReleaseEmptyBufferS.str1.4
                0x0800f840        0x6 C:\Users\zerog\AppData\Local\Temp\APS_DIGITAL_CGG.elf.PLIgTd.ltrans0.ltrans.o
 *fill*         0x0800f846        0x2 
 .rodata.__dbg_check_lock.str1.4
                0x0800f848        0x5 C:\Users\zerog\AppData\Local\Temp\APS_DIGITAL_CGG.elf.PLIgTd.ltrans0.ltrans.o
 *fill*         0x0800f84d        0x3 
 .rodata.chDbgCheckClassI.str1.4
                0x0800f850        0x6 C:\Users\zerog\AppData\Local\Temp\APS_DIGITAL_CGG.elf.PLIgTd.ltrans0.ltrans.o
 *fill*         0x0800f856        0x2 
 .rodata.chSysUnlock.lto_priv.3.str1.4
                0x0800f858        0x5 C:\Users\zerog\AppData\Local\Temp\APS_DIGITAL_CGG.elf.PLIgTd.ltrans0.ltrans.o
 *fill*         0x0800f85d        0x3 
 .rodata._usb_ep0setup.str1.4
                0x0800f860        0xd C:\Users\zerog\AppData\Local\Temp\APS_DIGITAL_CGG.elf.PLIgTd.ltrans0.ltrans.o
 *fill*         0x0800f86d        0x3 
 .rodata.Thread_LED.str1.4
                0x0800f870        0x4 C:\Users\zerog\AppData\Local\Temp\APS_DIGITAL_CGG.elf.PLIgTd.ltrans0.ltrans.o
 .rodata.spi_lld_serve_rx_interrupt.str1.4
                0x0800f874        0xc C:\Users\zerog\AppData\Local\Temp\APS_DIGITAL_CGG.elf.PLIgTd.ltrans0.ltrans.o
 .rodata.chprintf.str1.4
                0x0800f880        0x7 C:\Users\zerog\AppData\Local\Temp\APS_DIGITAL_CGG.elf.PLIgTd.ltrans0.ltrans.o
 .rodata.cmd_info.str1.4
                0x0800f880      0x175 C:\Users\zerog\AppData\Local\Temp\APS_DIGITAL_CGG.elf.PLIgTd.ltrans0.ltrans.o
 *fill*         0x0800f9f5        0x3 
 .rodata.cmd_echo.str1.4
                0x0800f9f8       0x15 C:\Users\zerog\AppData\Local\Temp\APS_DIGITAL_CGG.elf.PLIgTd.ltrans0.ltrans.o
 *fill*         0x0800fa0d        0x3 
 .rodata.cmd_systime.str1.4
                0x0800fa10        0xe C:\Users\zerog\AppData\Local\Temp\APS_DIGITAL_CGG.elf.PLIgTd.ltrans0.ltrans.o
 *fill*         0x0800fa1e        0x2 
 .rodata.cmd_mem.str1.4
                0x0800fa20       0x7a C:\Users\zerog\AppData\Local\Temp\APS_DIGITAL_CGG.elf.PLIgTd.ltrans0.ltrans.o
 *fill*         0x0800fa9a        0x2 
 .rodata.cmd_threads.str1.4
                0x0800fa9c       0x78 C:\Users\zerog\AppData\Local\Temp\APS_DIGITAL_CGG.elf.PLIgTd.ltrans0.ltrans.o
                                 0x7c (size before relaxing)
 .rodata.cmd_status.str1.4
                0x0800fb14       0x10 C:\Users\zerog\AppData\Local\Temp\APS_DIGITAL_CGG.elf.PLIgTd.ltrans0.ltrans.o
 .rodata.cmd_selftest.str1.4
                0x0800fb24       0x17 C:\Users\zerog\AppData\Local\Temp\APS_DIGITAL_CGG.elf.PLIgTd.ltrans0.ltrans.o
 *fill*         0x0800fb3b        0x1 
 .rodata.cmd_stop.str1.4
                0x0800fb3c       0x23 C:\Users\zerog\AppData\Local\Temp\APS_DIGITAL_CGG.elf.PLIgTd.ltrans0.ltrans.o
 *fill*         0x0800fb5f        0x1 
 .rodata.cmd_reset.str1.4
                0x0800fb60       0x19 C:\Users\zerog\AppData\Local\Temp\APS_DIGITAL_CGG.elf.PLIgTd.ltrans0.ltrans.o
 .rodata.shellGetLine.constprop.0.isra.0.str1.4
                0x0800fb79       0x19 C:\Users\zerog\AppData\Local\Temp\APS_DIGITAL_CGG.elf.PLIgTd.ltrans0.ltrans.o
                                  0x3 (size before relaxing)
 *fill*         0x0800fb79        0x3 
 .rodata.parse_arguments.str1.4
                0x0800fb7c        0x3 C:\Users\zerog\AppData\Local\Temp\APS_DIGITAL_CGG.elf.PLIgTd.ltrans0.ltrans.o
 *fill*         0x0800fb7f        0x1 
 .rodata.shellThread.str1.4
                0x0800fb80       0x6d C:\Users\zerog\AppData\Local\Temp\APS_DIGITAL_CGG.elf.PLIgTd.ltrans0.ltrans.o
 *fill*         0x0800fbed        0x3 
 .rodata.Thread_DD.str1.4
                0x0800fbf0       0x54 C:\Users\zerog\AppData\Local\Temp\APS_DIGITAL_CGG.elf.PLIgTd.ltrans0.ltrans.o
 .rodata.cmd_DD_test.str1.4
                0x0800fc44      0x42c C:\Users\zerog\AppData\Local\Temp\APS_DIGITAL_CGG.elf.PLIgTd.ltrans0.ltrans.o
 .rodata.chThdCreateStatic.constprop.0.isra.0.str1.4
                0x08010070        0x7 C:\Users\zerog\AppData\Local\Temp\APS_DIGITAL_CGG.elf.PLIgTd.ltrans0.ltrans.o
 *fill*         0x08010077        0x1 
 .rodata.Vector58.str1.4
                0x08010078        0xd C:\Users\zerog\AppData\Local\Temp\APS_DIGITAL_CGG.elf.PLIgTd.ltrans0.ltrans.o
 *fill*         0x08010085        0x3 
 .rodata._exit.str1.4
                0x08010088        0x5 C:\Users\zerog\AppData\Local\Temp\APS_DIGITAL_CGG.elf.PLIgTd.ltrans0.ltrans.o
 *fill*         0x0801008d        0x3 
 .rodata._kill.str1.4
                0x08010090        0x5 C:\Users\zerog\AppData\Local\Temp\APS_DIGITAL_CGG.elf.PLIgTd.ltrans0.ltrans.o
 *fill*         0x08010095        0x3 
 .rodata.main.str1.4
                0x08010098       0x65 C:\Users\zerog\AppData\Local\Temp\APS_DIGITAL_CGG.elf.PLIgTd.ltrans0.ltrans.o
 *fill*         0x080100fd        0x3 
 .rodata.str1.4
                0x08010100       0xc9 C:\Users\zerog\AppData\Local\Temp\APS_DIGITAL_CGG.elf.PLIgTd.ltrans0.ltrans.o
 *fill*         0x080101c9        0x3 
 .rodata.__func__.0.lto_priv.0
                0x080101cc       0x10 C:\Users\zerog\AppData\Local\Temp\APS_DIGITAL_CGG.elf.PLIgTd.ltrans0.ltrans.o
 .rodata.__func__.0.lto_priv.1
                0x080101dc        0xc C:\Users\zerog\AppData\Local\Temp\APS_DIGITAL_CGG.elf.PLIgTd.ltrans0.ltrans.o
 .rodata.__func__.0.lto_priv.10
                0x080101e8       0x14 C:\Users\zerog\AppData\Local\Temp\APS_DIGITAL_CGG.elf.PLIgTd.ltrans0.ltrans.o
 .rodata.__func__.0.lto_priv.11
                0x080101fc       0x10 C:\Users\zerog\AppData\Local\Temp\APS_DIGITAL_CGG.elf.PLIgTd.ltrans0.ltrans.o
 .rodata.__func__.0.lto_priv.12
                0x0801020c        0xc C:\Users\zerog\AppData\Local\Temp\APS_DIGITAL_CGG.elf.PLIgTd.ltrans0.ltrans.o
 .rodata.__func__.0.lto_priv.13
                0x08010218        0xb C:\Users\zerog\AppData\Local\Temp\APS_DIGITAL_CGG.elf.PLIgTd.ltrans0.ltrans.o
 *fill*         0x08010223        0x1 
 .rodata.__func__.0.lto_priv.14
                0x08010224        0xc C:\Users\zerog\AppData\Local\Temp\APS_DIGITAL_CGG.elf.PLIgTd.ltrans0.ltrans.o
 .rodata.__func__.0.lto_priv.15
                0x08010230        0x8 C:\Users\zerog\AppData\Local\Temp\APS_DIGITAL_CGG.elf.PLIgTd.ltrans0.ltrans.o
 .rodata.__func__.0.lto_priv.16
                0x08010238        0xc C:\Users\zerog\AppData\Local\Temp\APS_DIGITAL_CGG.elf.PLIgTd.ltrans0.ltrans.o
 .rodata.__func__.0.lto_priv.2
                0x08010244        0xc C:\Users\zerog\AppData\Local\Temp\APS_DIGITAL_CGG.elf.PLIgTd.ltrans0.ltrans.o
 .rodata.__func__.0.lto_priv.5
                0x08010250       0x18 C:\Users\zerog\AppData\Local\Temp\APS_DIGITAL_CGG.elf.PLIgTd.ltrans0.ltrans.o
 .rodata.__func__.0.lto_priv.6
                0x08010268        0xd C:\Users\zerog\AppData\Local\Temp\APS_DIGITAL_CGG.elf.PLIgTd.ltrans0.ltrans.o
 *fill*         0x08010275        0x3 
 .rodata.__func__.0.lto_priv.7
                0x08010278       0x14 C:\Users\zerog\AppData\Local\Temp\APS_DIGITAL_CGG.elf.PLIgTd.ltrans0.ltrans.o
 .rodata.__func__.0.lto_priv.8
                0x0801028c       0x12 C:\Users\zerog\AppData\Local\Temp\APS_DIGITAL_CGG.elf.PLIgTd.ltrans0.ltrans.o
 *fill*         0x0801029e        0x2 
 .rodata.__func__.0.lto_priv.9
                0x080102a0       0x15 C:\Users\zerog\AppData\Local\Temp\APS_DIGITAL_CGG.elf.PLIgTd.ltrans0.ltrans.o
 *fill*         0x080102b5        0x3 
 .rodata.__func__.1.lto_priv.0
                0x080102b8        0xb C:\Users\zerog\AppData\Local\Temp\APS_DIGITAL_CGG.elf.PLIgTd.ltrans0.ltrans.o
 *fill*         0x080102c3        0x1 
 .rodata.__func__.1.lto_priv.1
                0x080102c4       0x13 C:\Users\zerog\AppData\Local\Temp\APS_DIGITAL_CGG.elf.PLIgTd.ltrans0.ltrans.o
 *fill*         0x080102d7        0x1 
 .rodata.__func__.1.lto_priv.10
                0x080102d8        0xc C:\Users\zerog\AppData\Local\Temp\APS_DIGITAL_CGG.elf.PLIgTd.ltrans0.ltrans.o
 .rodata.__func__.1.lto_priv.11
                0x080102e4        0xc C:\Users\zerog\AppData\Local\Temp\APS_DIGITAL_CGG.elf.PLIgTd.ltrans0.ltrans.o
 .rodata.__func__.1.lto_priv.13
                0x080102f0        0xc C:\Users\zerog\AppData\Local\Temp\APS_DIGITAL_CGG.elf.PLIgTd.ltrans0.ltrans.o
 .rodata.__func__.1.lto_priv.15
                0x080102fc       0x14 C:\Users\zerog\AppData\Local\Temp\APS_DIGITAL_CGG.elf.PLIgTd.ltrans0.ltrans.o
 .rodata.__func__.1.lto_priv.17
                0x08010310        0xc C:\Users\zerog\AppData\Local\Temp\APS_DIGITAL_CGG.elf.PLIgTd.ltrans0.ltrans.o
 .rodata.__func__.1.lto_priv.2
                0x0801031c       0x11 C:\Users\zerog\AppData\Local\Temp\APS_DIGITAL_CGG.elf.PLIgTd.ltrans0.ltrans.o
 *fill*         0x0801032d        0x3 
 .rodata.__func__.1.lto_priv.3
                0x08010330        0xb C:\Users\zerog\AppData\Local\Temp\APS_DIGITAL_CGG.elf.PLIgTd.ltrans0.ltrans.o
 *fill*         0x0801033b        0x1 
 .rodata.__func__.1.lto_priv.4
                0x0801033c        0xf C:\Users\zerog\AppData\Local\Temp\APS_DIGITAL_CGG.elf.PLIgTd.ltrans0.ltrans.o
 *fill*         0x0801034b        0x1 
 .rodata.__func__.1.lto_priv.6
                0x0801034c       0x16 C:\Users\zerog\AppData\Local\Temp\APS_DIGITAL_CGG.elf.PLIgTd.ltrans0.ltrans.o
 *fill*         0x08010362        0x2 
 .rodata.__func__.1.lto_priv.7
                0x08010364        0xc C:\Users\zerog\AppData\Local\Temp\APS_DIGITAL_CGG.elf.PLIgTd.ltrans0.ltrans.o
 .rodata.__func__.1.lto_priv.8
                0x08010370        0xc C:\Users\zerog\AppData\Local\Temp\APS_DIGITAL_CGG.elf.PLIgTd.ltrans0.ltrans.o
 .rodata.__func__.1.lto_priv.9
                0x0801037c        0xd C:\Users\zerog\AppData\Local\Temp\APS_DIGITAL_CGG.elf.PLIgTd.ltrans0.ltrans.o
 *fill*         0x08010389        0x3 
 .rodata.__func__.10.lto_priv.1
                0x0801038c        0x9 C:\Users\zerog\AppData\Local\Temp\APS_DIGITAL_CGG.elf.PLIgTd.ltrans0.ltrans.o
 *fill*         0x08010395        0x3 
 .rodata.__func__.11
                0x08010398        0xc C:\Users\zerog\AppData\Local\Temp\APS_DIGITAL_CGG.elf.PLIgTd.ltrans0.ltrans.o
 .rodata.__func__.12.lto_priv.0
                0x080103a4        0x9 C:\Users\zerog\AppData\Local\Temp\APS_DIGITAL_CGG.elf.PLIgTd.ltrans0.ltrans.o
 *fill*         0x080103ad        0x3 
 .rodata.__func__.12.lto_priv.1
                0x080103b0       0x12 C:\Users\zerog\AppData\Local\Temp\APS_DIGITAL_CGG.elf.PLIgTd.ltrans0.ltrans.o
 *fill*         0x080103c2        0x2 
 .rodata.__func__.13
                0x080103c4        0xc C:\Users\zerog\AppData\Local\Temp\APS_DIGITAL_CGG.elf.PLIgTd.ltrans0.ltrans.o
 .rodata.__func__.14.lto_priv.0
                0x080103d0        0x9 C:\Users\zerog\AppData\Local\Temp\APS_DIGITAL_CGG.elf.PLIgTd.ltrans0.ltrans.o
 *fill*         0x080103d9        0x3 
 .rodata.__func__.14.lto_priv.1
                0x080103dc        0xc C:\Users\zerog\AppData\Local\Temp\APS_DIGITAL_CGG.elf.PLIgTd.ltrans0.ltrans.o
 .rodata.__func__.15
                0x080103e8        0x6 C:\Users\zerog\AppData\Local\Temp\APS_DIGITAL_CGG.elf.PLIgTd.ltrans0.ltrans.o
 *fill*         0x080103ee        0x2 
 .rodata.__func__.16
                0x080103f0       0x16 C:\Users\zerog\AppData\Local\Temp\APS_DIGITAL_CGG.elf.PLIgTd.ltrans0.ltrans.o
 *fill*         0x08010406        0x2 
 .rodata.__func__.2.lto_priv.0
                0x08010408        0xd C:\Users\zerog\AppData\Local\Temp\APS_DIGITAL_CGG.elf.PLIgTd.ltrans0.ltrans.o
 *fill*         0x08010415        0x3 
 .rodata.__func__.2.lto_priv.1
                0x08010418       0x1a C:\Users\zerog\AppData\Local\Temp\APS_DIGITAL_CGG.elf.PLIgTd.ltrans0.ltrans.o
 *fill*         0x08010432        0x2 
 .rodata.__func__.2.lto_priv.2
                0x08010434        0xc C:\Users\zerog\AppData\Local\Temp\APS_DIGITAL_CGG.elf.PLIgTd.ltrans0.ltrans.o
 .rodata.__func__.2.lto_priv.4
                0x08010440        0xb C:\Users\zerog\AppData\Local\Temp\APS_DIGITAL_CGG.elf.PLIgTd.ltrans0.ltrans.o
 *fill*         0x0801044b        0x1 
 .rodata.__func__.2.lto_priv.5
                0x0801044c        0xe C:\Users\zerog\AppData\Local\Temp\APS_DIGITAL_CGG.elf.PLIgTd.ltrans0.ltrans.o
 *fill*         0x0801045a        0x2 
 .rodata.__func__.2.lto_priv.6
                0x0801045c        0xd C:\Users\zerog\AppData\Local\Temp\APS_DIGITAL_CGG.elf.PLIgTd.ltrans0.ltrans.o
 *fill*         0x08010469        0x3 
 .rodata.__func__.2.lto_priv.8
                0x0801046c        0xc C:\Users\zerog\AppData\Local\Temp\APS_DIGITAL_CGG.elf.PLIgTd.ltrans0.ltrans.o
 .rodata.__func__.3.lto_priv.0
                0x08010478       0x17 C:\Users\zerog\AppData\Local\Temp\APS_DIGITAL_CGG.elf.PLIgTd.ltrans0.ltrans.o
 *fill*         0x0801048f        0x1 
 .rodata.__func__.3.lto_priv.1
                0x08010490        0x9 C:\Users\zerog\AppData\Local\Temp\APS_DIGITAL_CGG.elf.PLIgTd.ltrans0.ltrans.o
 *fill*         0x08010499        0x3 
 .rodata.__func__.3.lto_priv.2
                0x0801049c       0x11 C:\Users\zerog\AppData\Local\Temp\APS_DIGITAL_CGG.elf.PLIgTd.ltrans0.ltrans.o
 *fill*         0x080104ad        0x3 
 .rodata.__func__.3.lto_priv.5
                0x080104b0       0x13 C:\Users\zerog\AppData\Local\Temp\APS_DIGITAL_CGG.elf.PLIgTd.ltrans0.ltrans.o
 *fill*         0x080104c3        0x1 
 .rodata.__func__.3.lto_priv.6
                0x080104c4       0x15 C:\Users\zerog\AppData\Local\Temp\APS_DIGITAL_CGG.elf.PLIgTd.ltrans0.ltrans.o
 *fill*         0x080104d9        0x3 
 .rodata.__func__.3.lto_priv.7
                0x080104dc        0xb C:\Users\zerog\AppData\Local\Temp\APS_DIGITAL_CGG.elf.PLIgTd.ltrans0.ltrans.o
 *fill*         0x080104e7        0x1 
 .rodata.__func__.3.lto_priv.8
                0x080104e8        0xd C:\Users\zerog\AppData\Local\Temp\APS_DIGITAL_CGG.elf.PLIgTd.ltrans0.ltrans.o
 *fill*         0x080104f5        0x3 
 .rodata.__func__.3.lto_priv.9
                0x080104f8        0xd C:\Users\zerog\AppData\Local\Temp\APS_DIGITAL_CGG.elf.PLIgTd.ltrans0.ltrans.o
 *fill*         0x08010505        0x3 
 .rodata.__func__.4.lto_priv.1
                0x08010508        0x5 C:\Users\zerog\AppData\Local\Temp\APS_DIGITAL_CGG.elf.PLIgTd.ltrans0.ltrans.o
 *fill*         0x0801050d        0x3 
 .rodata.__func__.4.lto_priv.2
                0x08010510        0xe C:\Users\zerog\AppData\Local\Temp\APS_DIGITAL_CGG.elf.PLIgTd.ltrans0.ltrans.o
 *fill*         0x0801051e        0x2 
 .rodata.__func__.4.lto_priv.3
                0x08010520       0x11 C:\Users\zerog\AppData\Local\Temp\APS_DIGITAL_CGG.elf.PLIgTd.ltrans0.ltrans.o
 *fill*         0x08010531        0x3 
 .rodata.__func__.4.lto_priv.4
                0x08010534       0x12 C:\Users\zerog\AppData\Local\Temp\APS_DIGITAL_CGG.elf.PLIgTd.ltrans0.ltrans.o
 *fill*         0x08010546        0x2 
 .rodata.__func__.4.lto_priv.6
                0x08010548        0xc C:\Users\zerog\AppData\Local\Temp\APS_DIGITAL_CGG.elf.PLIgTd.ltrans0.ltrans.o
 .rodata.__func__.4.lto_priv.7
                0x08010554        0xc C:\Users\zerog\AppData\Local\Temp\APS_DIGITAL_CGG.elf.PLIgTd.ltrans0.ltrans.o
 .rodata.__func__.5.lto_priv.0
                0x08010560        0xf C:\Users\zerog\AppData\Local\Temp\APS_DIGITAL_CGG.elf.PLIgTd.ltrans0.ltrans.o
 *fill*         0x0801056f        0x1 
 .rodata.__func__.5.lto_priv.1
                0x08010570        0x9 C:\Users\zerog\AppData\Local\Temp\APS_DIGITAL_CGG.elf.PLIgTd.ltrans0.ltrans.o
 *fill*         0x08010579        0x3 
 .rodata.__func__.5.lto_priv.2
                0x0801057c        0xd C:\Users\zerog\AppData\Local\Temp\APS_DIGITAL_CGG.elf.PLIgTd.ltrans0.ltrans.o
 *fill*         0x08010589        0x3 
 .rodata.__func__.5.lto_priv.3
                0x0801058c        0xe C:\Users\zerog\AppData\Local\Temp\APS_DIGITAL_CGG.elf.PLIgTd.ltrans0.ltrans.o
 *fill*         0x0801059a        0x2 
 .rodata.__func__.5.lto_priv.4
                0x0801059c       0x11 C:\Users\zerog\AppData\Local\Temp\APS_DIGITAL_CGG.elf.PLIgTd.ltrans0.ltrans.o
 *fill*         0x080105ad        0x3 
 .rodata.__func__.5.lto_priv.6
                0x080105b0       0x10 C:\Users\zerog\AppData\Local\Temp\APS_DIGITAL_CGG.elf.PLIgTd.ltrans0.ltrans.o
 .rodata.__func__.5.lto_priv.7
                0x080105c0        0xc C:\Users\zerog\AppData\Local\Temp\APS_DIGITAL_CGG.elf.PLIgTd.ltrans0.ltrans.o
 .rodata.__func__.6.lto_priv.0
                0x080105cc       0x17 C:\Users\zerog\AppData\Local\Temp\APS_DIGITAL_CGG.elf.PLIgTd.ltrans0.ltrans.o
 *fill*         0x080105e3        0x1 
 .rodata.__func__.6.lto_priv.1
                0x080105e4       0x15 C:\Users\zerog\AppData\Local\Temp\APS_DIGITAL_CGG.elf.PLIgTd.ltrans0.ltrans.o
 *fill*         0x080105f9        0x3 
 .rodata.__func__.6.lto_priv.3
                0x080105fc        0xb C:\Users\zerog\AppData\Local\Temp\APS_DIGITAL_CGG.elf.PLIgTd.ltrans0.ltrans.o
 *fill*         0x08010607        0x1 
 .rodata.__func__.7.lto_priv.0
                0x08010608       0x19 C:\Users\zerog\AppData\Local\Temp\APS_DIGITAL_CGG.elf.PLIgTd.ltrans0.ltrans.o
 *fill*         0x08010621        0x3 
 .rodata.__func__.7.lto_priv.1
                0x08010624       0x11 C:\Users\zerog\AppData\Local\Temp\APS_DIGITAL_CGG.elf.PLIgTd.ltrans0.ltrans.o
 *fill*         0x08010635        0x3 
 .rodata.__func__.7.lto_priv.2
                0x08010638        0xc C:\Users\zerog\AppData\Local\Temp\APS_DIGITAL_CGG.elf.PLIgTd.ltrans0.ltrans.o
 .rodata.__func__.8.lto_priv.0
                0x08010644        0xc C:\Users\zerog\AppData\Local\Temp\APS_DIGITAL_CGG.elf.PLIgTd.ltrans0.ltrans.o
 .rodata.__func__.8.lto_priv.1
                0x08010650        0xc C:\Users\zerog\AppData\Local\Temp\APS_DIGITAL_CGG.elf.PLIgTd.ltrans0.ltrans.o
 .rodata.__func__.8.lto_priv.2
                0x0801065c        0xb C:\Users\zerog\AppData\Local\Temp\APS_DIGITAL_CGG.elf.PLIgTd.ltrans0.ltrans.o
 *fill*         0x08010667        0x1 
 .rodata.__func__.9.lto_priv.0
                0x08010668       0x13 C:\Users\zerog\AppData\Local\Temp\APS_DIGITAL_CGG.elf.PLIgTd.ltrans0.ltrans.o
 *fill*         0x0801067b        0x1 
 .rodata.__func__.9.lto_priv.1
                0x0801067c        0xa C:\Users\zerog\AppData\Local\Temp\APS_DIGITAL_CGG.elf.PLIgTd.ltrans0.ltrans.o
 *fill*         0x08010686        0x2 
 .rodata.__func__.9.lto_priv.2
                0x08010688        0xc C:\Users\zerog\AppData\Local\Temp\APS_DIGITAL_CGG.elf.PLIgTd.ltrans0.ltrans.o
 .rodata.__func__.9.lto_priv.3
                0x08010694        0xd C:\Users\zerog\AppData\Local\Temp\APS_DIGITAL_CGG.elf.PLIgTd.ltrans0.ltrans.o
 *fill*         0x080106a1        0x3 
 .rodata._stm32_dma_streams
                0x080106a4      0x140 C:\Users\zerog\AppData\Local\Temp\APS_DIGITAL_CGG.elf.PLIgTd.ltrans0.ltrans.o
 .rodata.active_status
                0x080107e4        0x2 C:\Users\zerog\AppData\Local\Temp\APS_DIGITAL_CGG.elf.PLIgTd.ltrans0.ltrans.o
 *fill*         0x080107e6        0x2 
 .rodata.ch_core0_cfg
                0x080107e8       0x14 C:\Users\zerog\AppData\Local\Temp\APS_DIGITAL_CGG.elf.PLIgTd.ltrans0.ltrans.o
 .rodata.ch_debug
                0x080107fc       0x2c C:\Users\zerog\AppData\Local\Temp\APS_DIGITAL_CGG.elf.PLIgTd.ltrans0.ltrans.o
 .rodata.commands
                0x08010828       0x40 C:\Users\zerog\AppData\Local\Temp\APS_DIGITAL_CGG.elf.PLIgTd.ltrans0.ltrans.o
 .rodata.default_config
                0x08010868       0x14 C:\Users\zerog\AppData\Local\Temp\APS_DIGITAL_CGG.elf.PLIgTd.ltrans0.ltrans.o
 .rodata.ep0config
                0x0801087c       0x24 C:\Users\zerog\AppData\Local\Temp\APS_DIGITAL_CGG.elf.PLIgTd.ltrans0.ltrans.o
 .rodata.ep1config
                0x080108a0       0x24 C:\Users\zerog\AppData\Local\Temp\APS_DIGITAL_CGG.elf.PLIgTd.ltrans0.ltrans.o
 .rodata.ep2config
                0x080108c4       0x24 C:\Users\zerog\AppData\Local\Temp\APS_DIGITAL_CGG.elf.PLIgTd.ltrans0.ltrans.o
 .rodata.halted_status
                0x080108e8        0x2 C:\Users\zerog\AppData\Local\Temp\APS_DIGITAL_CGG.elf.PLIgTd.ltrans0.ltrans.o
 *fill*         0x080108ea        0x2 
 .rodata.pow10  0x080108ec       0x24 C:\Users\zerog\AppData\Local\Temp\APS_DIGITAL_CGG.elf.PLIgTd.ltrans0.ltrans.o
 .rodata.ram_areas
                0x08010910       0x80 C:\Users\zerog\AppData\Local\Temp\APS_DIGITAL_CGG.elf.PLIgTd.ltrans0.ltrans.o
 .rodata.serusbcfg
                0x08010990        0x8 C:\Users\zerog\AppData\Local\Temp\APS_DIGITAL_CGG.elf.PLIgTd.ltrans0.ltrans.o
 .rodata.shell_cfg1
                0x08010998        0x8 C:\Users\zerog\AppData\Local\Temp\APS_DIGITAL_CGG.elf.PLIgTd.ltrans0.ltrans.o
 .rodata.shell_cfg2
                0x080109a0        0x8 C:\Users\zerog\AppData\Local\Temp\APS_DIGITAL_CGG.elf.PLIgTd.ltrans0.ltrans.o
 .rodata.shell_local_commands
                0x080109a8       0x30 C:\Users\zerog\AppData\Local\Temp\APS_DIGITAL_CGG.elf.PLIgTd.ltrans0.ltrans.o
 .rodata.states.0
                0x080109d8       0x40 C:\Users\zerog\AppData\Local\Temp\APS_DIGITAL_CGG.elf.PLIgTd.ltrans0.ltrans.o
 .rodata.usbcfg
                0x08010a18       0x10 C:\Users\zerog\AppData\Local\Temp\APS_DIGITAL_CGG.elf.PLIgTd.ltrans0.ltrans.o
 .rodata.vcom_configuration_descriptor
                0x08010a28        0x8 C:\Users\zerog\AppData\Local\Temp\APS_DIGITAL_CGG.elf.PLIgTd.ltrans0.ltrans.o
 .rodata.vcom_configuration_descriptor_data
                0x08010a30       0x43 C:\Users\zerog\AppData\Local\Temp\APS_DIGITAL_CGG.elf.PLIgTd.ltrans0.ltrans.o
 *fill*         0x08010a73        0x1 
 .rodata.vcom_device_descriptor
                0x08010a74        0x8 C:\Users\zerog\AppData\Local\Temp\APS_DIGITAL_CGG.elf.PLIgTd.ltrans0.ltrans.o
 .rodata.vcom_device_descriptor_data
                0x08010a7c       0x12 C:\Users\zerog\AppData\Local\Temp\APS_DIGITAL_CGG.elf.PLIgTd.ltrans0.ltrans.o
 *fill*         0x08010a8e        0x2 
 .rodata.vcom_string0
                0x08010a90        0x4 C:\Users\zerog\AppData\Local\Temp\APS_DIGITAL_CGG.elf.PLIgTd.ltrans0.ltrans.o
 .rodata.vcom_string1
                0x08010a94       0x26 C:\Users\zerog\AppData\Local\Temp\APS_DIGITAL_CGG.elf.PLIgTd.ltrans0.ltrans.o
 *fill*         0x08010aba        0x2 
 .rodata.vcom_string2
                0x08010abc       0x38 C:\Users\zerog\AppData\Local\Temp\APS_DIGITAL_CGG.elf.PLIgTd.ltrans0.ltrans.o
 .rodata.vcom_string3
                0x08010af4        0x8 C:\Users\zerog\AppData\Local\Temp\APS_DIGITAL_CGG.elf.PLIgTd.ltrans0.ltrans.o
 .rodata.vcom_strings
                0x08010afc       0x20 C:\Users\zerog\AppData\Local\Temp\APS_DIGITAL_CGG.elf.PLIgTd.ltrans0.ltrans.o
 .rodata.vmt.lto_priv.0
                0x08010b1c       0x28 C:\Users\zerog\AppData\Local\Temp\APS_DIGITAL_CGG.elf.PLIgTd.ltrans0.ltrans.o
 .rodata.vmt.lto_priv.1
                0x08010b44       0x28 C:\Users\zerog\AppData\Local\Temp\APS_DIGITAL_CGG.elf.PLIgTd.ltrans0.ltrans.o
 .rodata.zero_status
                0x08010b6c        0x2 C:\Users\zerog\AppData\Local\Temp\APS_DIGITAL_CGG.elf.PLIgTd.ltrans0.ltrans.o
 .rodata.log.str1.4
                0x08010b6e        0x0 c:/chibistudio/tools/gnu tools arm embedded/10.3 2021.07/bin/../lib/gcc/arm-none-eabi/10.3.1/../../../../arm-none-eabi/lib/thumb/v7e-m/nofp\libm.a(lib_a-w_log.o)
                                  0x1 (size before relaxing)
 *fill*         0x08010b6e        0x2 
 .rodata._ctype_
                0x08010b70      0x101 c:/chibistudio/tools/gnu tools arm embedded/10.3 2021.07/bin/../lib/gcc/arm-none-eabi/10.3.1/../../../../arm-none-eabi/lib/thumb/v7e-m/nofp\libg.a(lib_a-ctype_.o)
                0x08010b70                _ctype_
 *fill*         0x08010c71        0x3 
 .rodata._strtod_l.str1.4
                0x08010c74        0xf c:/chibistudio/tools/gnu tools arm embedded/10.3 2021.07/bin/../lib/gcc/arm-none-eabi/10.3.1/../../../../arm-none-eabi/lib/thumb/v7e-m/nofp\libg.a(lib_a-strtod.o)
                                 0x11 (size before relaxing)
 *fill*         0x08010c83        0x1 
 .rodata.fpi.1  0x08010c84       0x14 c:/chibistudio/tools/gnu tools arm embedded/10.3 2021.07/bin/../lib/gcc/arm-none-eabi/10.3.1/../../../../arm-none-eabi/lib/thumb/v7e-m/nofp\libg.a(lib_a-strtod.o)
 .rodata.fpinan.0
                0x08010c98       0x14 c:/chibistudio/tools/gnu tools arm embedded/10.3 2021.07/bin/../lib/gcc/arm-none-eabi/10.3.1/../../../../arm-none-eabi/lib/thumb/v7e-m/nofp\libg.a(lib_a-strtod.o)
 *fill*         0x08010cac        0x4 
 .rodata.tinytens
                0x08010cb0       0x28 c:/chibistudio/tools/gnu tools arm embedded/10.3 2021.07/bin/../lib/gcc/arm-none-eabi/10.3.1/../../../../arm-none-eabi/lib/thumb/v7e-m/nofp\libg.a(lib_a-strtod.o)
 .rodata.__gethex.str1.4
                0x08010cd8       0x9a c:/chibistudio/tools/gnu tools arm embedded/10.3 2021.07/bin/../lib/gcc/arm-none-eabi/10.3.1/../../../../arm-none-eabi/lib/thumb/v7e-m/nofp\libg.a(lib_a-gdtoa-gethex.o)
 *fill*         0x08010d72        0x2 
 .rodata.__hexdig
                0x08010d74      0x100 c:/chibistudio/tools/gnu tools arm embedded/10.3 2021.07/bin/../lib/gcc/arm-none-eabi/10.3.1/../../../../arm-none-eabi/lib/thumb/v7e-m/nofp\libg.a(lib_a-gdtoa-gethex.o)
                0x08010d74                __hexdig
 .rodata.str1.4
                0x08010e74        0x2 c:/chibistudio/tools/gnu tools arm embedded/10.3 2021.07/bin/../lib/gcc/arm-none-eabi/10.3.1/../../../../arm-none-eabi/lib/thumb/v7e-m/nofp\libg.a(lib_a-lnumeric.o)
                                  0x5 (size before relaxing)
 *fill*         0x08010e76        0x2 
 .rodata._C_numeric_locale
                0x08010e78        0xc c:/chibistudio/tools/gnu tools arm embedded/10.3 2021.07/bin/../lib/gcc/arm-none-eabi/10.3.1/../../../../arm-none-eabi/lib/thumb/v7e-m/nofp\libg.a(lib_a-lnumeric.o)
                0x08010e78                _C_numeric_locale
 .rodata._setlocale_r.str1.4
                0x08010e84        0xa c:/chibistudio/tools/gnu tools arm embedded/10.3 2021.07/bin/../lib/gcc/arm-none-eabi/10.3.1/../../../../arm-none-eabi/lib/thumb/v7e-m/nofp\libg.a(lib_a-locale.o)
                                  0xd (size before relaxing)
 .rodata.str1.4
                0x08010e8e        0x2 c:/chibistudio/tools/gnu tools arm embedded/10.3 2021.07/bin/../lib/gcc/arm-none-eabi/10.3.1/../../../../arm-none-eabi/lib/thumb/v7e-m/nofp\libg.a(lib_a-locale.o)
 *fill*         0x08010e8e        0x2 
 .rodata.__multadd.str1.4
                0x08010e90       0x7f c:/chibistudio/tools/gnu tools arm embedded/10.3 2021.07/bin/../lib/gcc/arm-none-eabi/10.3.1/../../../../arm-none-eabi/lib/thumb/v7e-m/nofp\libg.a(lib_a-mprec.o)
                                 0x93 (size before relaxing)
 *fill*         0x08010f0f        0x1 
 .rodata.__mprec_bigtens
                0x08010f10       0x28 c:/chibistudio/tools/gnu tools arm embedded/10.3 2021.07/bin/../lib/gcc/arm-none-eabi/10.3.1/../../../../arm-none-eabi/lib/thumb/v7e-m/nofp\libg.a(lib_a-mprec.o)
                0x08010f10                __mprec_bigtens
 .rodata.__mprec_tens
                0x08010f38       0xc8 c:/chibistudio/tools/gnu tools arm embedded/10.3 2021.07/bin/../lib/gcc/arm-none-eabi/10.3.1/../../../../arm-none-eabi/lib/thumb/v7e-m/nofp\libg.a(lib_a-mprec.o)
                0x08010f38                __mprec_tens
 .rodata.p05.0  0x08011000        0xc c:/chibistudio/tools/gnu tools arm embedded/10.3 2021.07/bin/../lib/gcc/arm-none-eabi/10.3.1/../../../../arm-none-eabi/lib/thumb/v7e-m/nofp\libg.a(lib_a-mprec.o)
 .rodata.__assert_func.str1.4
                0x0801100c       0x3f c:/chibistudio/tools/gnu tools arm embedded/10.3 2021.07/bin/../lib/gcc/arm-none-eabi/10.3.1/../../../../arm-none-eabi/lib/thumb/v7e-m/nofp\libg.a(lib_a-assert.o)
                                 0x43 (size before relaxing)
 *fill*         0x0801104b        0x1 
 .rodata._vfiprintf_r.str1.4
                0x0801104c       0x2f c:/chibistudio/tools/gnu tools arm embedded/10.3 2021.07/bin/../lib/gcc/arm-none-eabi/10.3.1/../../../../arm-none-eabi/lib/thumb/v7e-m/nofp\libg.a(lib_a-vfiprintf.o)
 *fill*         0x0801107b        0x1 
 .rodata.blanks.1
                0x0801107c       0x10 c:/chibistudio/tools/gnu tools arm embedded/10.3 2021.07/bin/../lib/gcc/arm-none-eabi/10.3.1/../../../../arm-none-eabi/lib/thumb/v7e-m/nofp\libg.a(lib_a-vfiprintf.o)
 .rodata.zeroes.0
                0x0801108c       0x10 c:/chibistudio/tools/gnu tools arm embedded/10.3 2021.07/bin/../lib/gcc/arm-none-eabi/10.3.1/../../../../arm-none-eabi/lib/thumb/v7e-m/nofp\libg.a(lib_a-vfiprintf.o)
                0x0801109c                . = ALIGN (0x4)
                0x0801109c                __rodata_end__ = .

.ARM.extab
 *(.ARM.extab* .gnu.linkonce.armextab.*)

.ARM.exidx      0x0801109c        0x8
                0x0801109c                __exidx_base__ = .
                0x0801109c                __exidx_start = .
 *(.ARM.exidx* .gnu.linkonce.armexidx.*)
 .ARM.exidx     0x0801109c        0x8 c:/chibistudio/tools/gnu tools arm embedded/10.3 2021.07/bin/../lib/gcc/arm-none-eabi/10.3.1/thumb/v7e-m/nofp\libgcc.a(_udivmoddi4.o)
                0x080110a4                __exidx_end__ = .
                0x080110a4                __exidx_end = .

.rel.dyn        0x080110a4        0x0
 .rel.iplt      0x080110a4        0x0 ./build/obj/crt0_v7m.o

.eh_frame_hdr
 *(.eh_frame_hdr)

.eh_frame
 *(.eh_frame)

.data           0x20000800      0x9b8 load address 0x080110a4
                [!provide]                PROVIDE (_textdata = LOADADDR (.data))
                [!provide]                PROVIDE (_data = .)
                0x080110a4                __textdata_base__ = LOADADDR (.data)
                0x20000800                __data_base__ = .
 *(.data)
 *(.data.*)
 .data.linecoding
                0x20000800        0x7 C:\Users\zerog\AppData\Local\Temp\APS_DIGITAL_CGG.elf.PLIgTd.ltrans0.ltrans.o
 *fill*         0x20000807        0x1 
 .data._impure_ptr
                0x20000808        0x4 c:/chibistudio/tools/gnu tools arm embedded/10.3 2021.07/bin/../lib/gcc/arm-none-eabi/10.3.1/../../../../arm-none-eabi/lib/thumb/v7e-m/nofp\libg.a(lib_a-impure.o)
                0x20000808                _impure_ptr
 *fill*         0x2000080c        0x4 
 .data.impure_data
                0x20000810      0x428 c:/chibistudio/tools/gnu tools arm embedded/10.3 2021.07/bin/../lib/gcc/arm-none-eabi/10.3.1/../../../../arm-none-eabi/lib/thumb/v7e-m/nofp\libg.a(lib_a-impure.o)
 .data.numempty
                0x20000c38        0x2 c:/chibistudio/tools/gnu tools arm embedded/10.3 2021.07/bin/../lib/gcc/arm-none-eabi/10.3.1/../../../../arm-none-eabi/lib/thumb/v7e-m/nofp\libg.a(lib_a-lnumeric.o)
 *fill*         0x20000c3a        0x2 
 .data.__global_locale
                0x20000c3c      0x16c c:/chibistudio/tools/gnu tools arm embedded/10.3 2021.07/bin/../lib/gcc/arm-none-eabi/10.3.1/../../../../arm-none-eabi/lib/thumb/v7e-m/nofp\libg.a(lib_a-locale.o)
                0x20000c3c                __global_locale
 .data.__malloc_av_
                0x20000da8      0x408 c:/chibistudio/tools/gnu tools arm embedded/10.3 2021.07/bin/../lib/gcc/arm-none-eabi/10.3.1/../../../../arm-none-eabi/lib/thumb/v7e-m/nofp\libg.a(lib_a-mallocr.o)
                0x20000da8                __malloc_av_
 .data.__malloc_sbrk_base
                0x200011b0        0x4 c:/chibistudio/tools/gnu tools arm embedded/10.3 2021.07/bin/../lib/gcc/arm-none-eabi/10.3.1/../../../../arm-none-eabi/lib/thumb/v7e-m/nofp\libg.a(lib_a-mallocr.o)
                0x200011b0                __malloc_sbrk_base
 .data.__malloc_trim_threshold
                0x200011b4        0x4 c:/chibistudio/tools/gnu tools arm embedded/10.3 2021.07/bin/../lib/gcc/arm-none-eabi/10.3.1/../../../../arm-none-eabi/lib/thumb/v7e-m/nofp\libg.a(lib_a-mallocr.o)
                0x200011b4                __malloc_trim_threshold
 *(.ramtext)
                0x200011b8                . = ALIGN (0x4)
                [!provide]                PROVIDE (_edata = .)
                0x200011b8                __data_end__ = .

.igot.plt       0x200011b8        0x0 load address 0x08011a5c
 .igot.plt      0x200011b8        0x0 ./build/obj/crt0_v7m.o

.bss            0x200011c0    0x11194 load address 0x08011a5c
                0x200011c0                __bss_base__ = .
 *(.bss)
 *(.bss.*)
 .bss.AD8460    0x200011c0       0x10 C:\Users\zerog\AppData\Local\Temp\APS_DIGITAL_CGG.elf.PLIgTd.ltrans0.ltrans.o
 *fill*         0x200011d0       0x10 
 .bss.DD_data_buffer
                0x200011e0    0x10000 C:\Users\zerog\AppData\Local\Temp\APS_DIGITAL_CGG.elf.PLIgTd.ltrans0.ltrans.o
 .bss.DD_running_test
                0x200111e0       0x18 C:\Users\zerog\AppData\Local\Temp\APS_DIGITAL_CGG.elf.PLIgTd.ltrans0.ltrans.o
 .bss.DD_test_data
                0x200111f8       0xf0 C:\Users\zerog\AppData\Local\Temp\APS_DIGITAL_CGG.elf.PLIgTd.ltrans0.ltrans.o
 .bss.DD_test_data_pointers
                0x200112e8       0x28 C:\Users\zerog\AppData\Local\Temp\APS_DIGITAL_CGG.elf.PLIgTd.ltrans0.ltrans.o
 .bss.DD_test_data_pool
                0x20011310       0x10 C:\Users\zerog\AppData\Local\Temp\APS_DIGITAL_CGG.elf.PLIgTd.ltrans0.ltrans.o
 .bss.DD_test_mailbox
                0x20011320       0x28 C:\Users\zerog\AppData\Local\Temp\APS_DIGITAL_CGG.elf.PLIgTd.ltrans0.ltrans.o
 .bss.DD_test_running_flag
                0x20011348        0x1 C:\Users\zerog\AppData\Local\Temp\APS_DIGITAL_CGG.elf.PLIgTd.ltrans0.ltrans.o
 *fill*         0x20011349        0x3 
 .bss.GPTD4     0x2001134c       0x10 C:\Users\zerog\AppData\Local\Temp\APS_DIGITAL_CGG.elf.PLIgTd.ltrans0.ltrans.o
 .bss.SDU1      0x2001135c      0x490 C:\Users\zerog\AppData\Local\Temp\APS_DIGITAL_CGG.elf.PLIgTd.ltrans0.ltrans.o
 .bss.SIOD2     0x200117ec       0x30 C:\Users\zerog\AppData\Local\Temp\APS_DIGITAL_CGG.elf.PLIgTd.ltrans0.ltrans.o
 .bss.SPID3     0x2001181c       0x38 C:\Users\zerog\AppData\Local\Temp\APS_DIGITAL_CGG.elf.PLIgTd.ltrans0.ltrans.o
 .bss.USBD1     0x20011854       0x88 C:\Users\zerog\AppData\Local\Temp\APS_DIGITAL_CGG.elf.PLIgTd.ltrans0.ltrans.o
 .bss._pal_events
                0x200118dc      0x100 C:\Users\zerog\AppData\Local\Temp\APS_DIGITAL_CGG.elf.PLIgTd.ltrans0.ltrans.o
 *fill*         0x200119dc        0x4 
 .bss.ch0       0x200119e0      0x110 C:\Users\zerog\AppData\Local\Temp\APS_DIGITAL_CGG.elf.PLIgTd.ltrans0.ltrans.o
 .bss.ch_c0_idle_thread_wa
                0x20011af0       0xe8 C:\Users\zerog\AppData\Local\Temp\APS_DIGITAL_CGG.elf.PLIgTd.ltrans0.ltrans.o
 .bss.ch_memcore
                0x20011bd8        0x8 C:\Users\zerog\AppData\Local\Temp\APS_DIGITAL_CGG.elf.PLIgTd.ltrans0.ltrans.o
 .bss.ch_system
                0x20011be0        0xc C:\Users\zerog\AppData\Local\Temp\APS_DIGITAL_CGG.elf.PLIgTd.ltrans0.ltrans.o
 .bss.chp_shell
                0x20011bec        0x4 C:\Users\zerog\AppData\Local\Temp\APS_DIGITAL_CGG.elf.PLIgTd.ltrans0.ltrans.o
 .bss.clear_to_run_flag
                0x20011bf0        0x1 C:\Users\zerog\AppData\Local\Temp\APS_DIGITAL_CGG.elf.PLIgTd.ltrans0.ltrans.o
 *fill*         0x20011bf1        0x3 
 .bss.default_heap
                0x20011bf4       0x1c C:\Users\zerog\AppData\Local\Temp\APS_DIGITAL_CGG.elf.PLIgTd.ltrans0.ltrans.o
 .bss.dma       0x20011c10       0x88 C:\Users\zerog\AppData\Local\Temp\APS_DIGITAL_CGG.elf.PLIgTd.ltrans0.ltrans.o
 .bss.ep0_state
                0x20011c98       0x10 C:\Users\zerog\AppData\Local\Temp\APS_DIGITAL_CGG.elf.PLIgTd.ltrans0.ltrans.o
 .bss.ep0setup_buffer
                0x20011ca8        0x8 C:\Users\zerog\AppData\Local\Temp\APS_DIGITAL_CGG.elf.PLIgTd.ltrans0.ltrans.o
 .bss.ep1instate
                0x20011cb0       0x10 C:\Users\zerog\AppData\Local\Temp\APS_DIGITAL_CGG.elf.PLIgTd.ltrans0.ltrans.o
 .bss.ep1outstate
                0x20011cc0       0x10 C:\Users\zerog\AppData\Local\Temp\APS_DIGITAL_CGG.elf.PLIgTd.ltrans0.ltrans.o
 .bss.ep2instate
                0x20011cd0       0x10 C:\Users\zerog\AppData\Local\Temp\APS_DIGITAL_CGG.elf.PLIgTd.ltrans0.ltrans.o
 .bss.rxbuf.1   0x20011ce0       0x20 C:\Users\zerog\AppData\Local\Temp\APS_DIGITAL_CGG.elf.PLIgTd.ltrans0.ltrans.o
 .bss.shell_terminated
                0x20011d00        0x4 C:\Users\zerog\AppData\Local\Temp\APS_DIGITAL_CGG.elf.PLIgTd.ltrans0.ltrans.o
 *fill*         0x20011d04       0x1c 
 .bss.txbuf.2   0x20011d20       0x20 C:\Users\zerog\AppData\Local\Temp\APS_DIGITAL_CGG.elf.PLIgTd.ltrans0.ltrans.o
 .bss.waThread_DD
                0x20011d40      0x4a8 C:\Users\zerog\AppData\Local\Temp\APS_DIGITAL_CGG.elf.PLIgTd.ltrans0.ltrans.o
 .bss.waThread_LED
                0x200121e8      0x128 C:\Users\zerog\AppData\Local\Temp\APS_DIGITAL_CGG.elf.PLIgTd.ltrans0.ltrans.o
 .bss.__malloc_current_mallinfo
                0x20012310       0x28 c:/chibistudio/tools/gnu tools arm embedded/10.3 2021.07/bin/../lib/gcc/arm-none-eabi/10.3.1/../../../../arm-none-eabi/lib/thumb/v7e-m/nofp\libg.a(lib_a-mallocr.o)
                0x20012310                __malloc_current_mallinfo
 .bss.__malloc_max_sbrked_mem
                0x20012338        0x4 c:/chibistudio/tools/gnu tools arm embedded/10.3 2021.07/bin/../lib/gcc/arm-none-eabi/10.3.1/../../../../arm-none-eabi/lib/thumb/v7e-m/nofp\libg.a(lib_a-mallocr.o)
                0x20012338                __malloc_max_sbrked_mem
 .bss.__malloc_max_total_mem
                0x2001233c        0x4 c:/chibistudio/tools/gnu tools arm embedded/10.3 2021.07/bin/../lib/gcc/arm-none-eabi/10.3.1/../../../../arm-none-eabi/lib/thumb/v7e-m/nofp\libg.a(lib_a-mallocr.o)
                0x2001233c                __malloc_max_total_mem
 .bss.__malloc_top_pad
                0x20012340        0x4 c:/chibistudio/tools/gnu tools arm embedded/10.3 2021.07/bin/../lib/gcc/arm-none-eabi/10.3.1/../../../../arm-none-eabi/lib/thumb/v7e-m/nofp\libg.a(lib_a-mallocr.o)
                0x20012340                __malloc_top_pad
 .bss.__lock___malloc_recursive_mutex
                0x20012344        0x1 c:/chibistudio/tools/gnu tools arm embedded/10.3 2021.07/bin/../lib/gcc/arm-none-eabi/10.3.1/../../../../arm-none-eabi/lib/thumb/v7e-m/nofp\libg.a(lib_a-lock.o)
                0x20012344                __lock___malloc_recursive_mutex
 *fill*         0x20012345        0x3 
 .bss.__lock___sfp_recursive_mutex
                0x20012348        0x1 c:/chibistudio/tools/gnu tools arm embedded/10.3 2021.07/bin/../lib/gcc/arm-none-eabi/10.3.1/../../../../arm-none-eabi/lib/thumb/v7e-m/nofp\libg.a(lib_a-lock.o)
                0x20012348                __lock___sfp_recursive_mutex
 *fill*         0x20012349        0x3 
 .bss.__lock___sinit_recursive_mutex
                0x2001234c        0x1 c:/chibistudio/tools/gnu tools arm embedded/10.3 2021.07/bin/../lib/gcc/arm-none-eabi/10.3.1/../../../../arm-none-eabi/lib/thumb/v7e-m/nofp\libg.a(lib_a-lock.o)
                0x2001234c                __lock___sinit_recursive_mutex
 *fill*         0x2001234d        0x3 
 .bss.errno     0x20012350        0x4 c:/chibistudio/tools/gnu tools arm embedded/10.3 2021.07/bin/../lib/gcc/arm-none-eabi/10.3.1/../../../../arm-none-eabi/lib/thumb/v7e-m/nofp\libg.a(lib_a-reent.o)
                0x20012350                errno
 *(COMMON)
                0x20012354                . = ALIGN (0x4)
                0x20012354                __bss_end__ = .
                [!provide]                PROVIDE (end = .)
                0x20000000                __ram0_base__ = ORIGIN (ram0)
                0x00020000                __ram0_size__ = LENGTH (ram0)
                0x20020000                __ram0_end__ = (__ram0_base__ + __ram0_size__)
                0x20000000                __ram1_base__ = ORIGIN (ram1)
                0x00018000                __ram1_size__ = LENGTH (ram1)
                0x20018000                __ram1_end__ = (__ram1_base__ + __ram1_size__)
                0x20000000                __ram2_base__ = ORIGIN (ram2)
                0x00014000                __ram2_size__ = LENGTH (ram2)
                0x20014000                __ram2_end__ = (__ram2_base__ + __ram2_size__)
                0x20014000                __ram3_base__ = ORIGIN (ram3)
                0x00004000                __ram3_size__ = LENGTH (ram3)
                0x20018000                __ram3_end__ = (__ram3_base__ + __ram3_size__)
                0x20018000                __ram4_base__ = ORIGIN (ram4)
                0x00008000                __ram4_size__ = LENGTH (ram4)
                0x20020000                __ram4_end__ = (__ram4_base__ + __ram4_size__)
                0x10000000                __ram5_base__ = ORIGIN (ram5)
                0x00008000                __ram5_size__ = LENGTH (ram5)
                0x10008000                __ram5_end__ = (__ram5_base__ + __ram5_size__)
                0x00000000                __ram6_base__ = ORIGIN (ram6)
                0x00000000                __ram6_size__ = LENGTH (ram6)
                0x00000000                __ram6_end__ = (__ram6_base__ + __ram6_size__)
                0x00000000                __ram7_base__ = ORIGIN (ram7)
                0x00000000                __ram7_size__ = LENGTH (ram7)
                0x00000000                __ram7_end__ = (__ram7_base__ + __ram7_size__)
                0x08000000                __flash0_base__ = ORIGIN (flash0)
                0x00080000                __flash0_size__ = LENGTH (flash0)
                0x08080000                __flash0_end__ = (__flash0_base__ + __flash0_size__)
                0x00000000                __flash1_base__ = ORIGIN (flash1)
                0x00000000                __flash1_size__ = LENGTH (flash1)
                0x00000000                __flash1_end__ = (__flash1_base__ + __flash1_size__)
                0x00000000                __flash2_base__ = ORIGIN (flash2)
                0x00000000                __flash2_size__ = LENGTH (flash2)
                0x00000000                __flash2_end__ = (__flash2_base__ + __flash2_size__)
                0x00000000                __flash3_base__ = ORIGIN (flash3)
                0x00000000                __flash3_size__ = LENGTH (flash3)
                0x00000000                __flash3_end__ = (__flash3_base__ + __flash3_size__)
                0x00000000                __flash4_base__ = ORIGIN (flash4)
                0x00000000                __flash4_size__ = LENGTH (flash4)
                0x00000000                __flash4_end__ = (__flash4_base__ + __flash4_size__)
                0x00000000                __flash5_base__ = ORIGIN (flash5)
                0x00000000                __flash5_size__ = LENGTH (flash5)
                0x00000000                __flash5_end__ = (__flash5_base__ + __flash5_size__)
                0x00000000                __flash6_base__ = ORIGIN (flash6)
                0x00000000                __flash6_size__ = LENGTH (flash6)
                0x00000000                __flash6_end__ = (__flash6_base__ + __flash6_size__)
                0x00000000                __flash7_base__ = ORIGIN (flash7)
                0x00000000                __flash7_size__ = LENGTH (flash7)
                0x00000000                __flash7_end__ = (__flash7_base__ + __flash7_size__)

.ram0_init      0x20000000        0x0 load address 0x08011a5c
                0x08011a5c                __ram0_init_text__ = LOADADDR (.ram0_init)
                0x20000000                __ram0_init__ = .
 *(.ram0_init)
 *(.ram0_init.*)
                0x20000000                . = ALIGN (0x4)

.ram0           0x20000000        0x0 load address 0x08011a5c
                0x20000000                __ram0_clear__ = .
 *(.ram0_clear)
 *(.ram0_clear.*)
                0x20000000                . = ALIGN (0x4)
                0x20000000                __ram0_noinit__ = .
 *(.ram0)
 *(.ram0.*)
                0x20000000                . = ALIGN (0x4)
                0x20000000                __ram0_free__ = .

.ram1_init      0x20012354        0x0 load address 0x08011a5c
                0x08011a5c                __ram1_init_text__ = LOADADDR (.ram1_init)
                0x20012354                __ram1_init__ = .
 *(.ram1_init)
 *(.ram1_init.*)
                0x20012354                . = ALIGN (0x4)

.ram1           0x20012354        0x0 load address 0x08011a5c
                0x20012354                __ram1_clear__ = .
 *(.ram1_clear)
 *(.ram1_clear.*)
                0x20012354                . = ALIGN (0x4)
                0x20012354                __ram1_noinit__ = .
 *(.ram1)
 *(.ram1.*)
                0x20012354                . = ALIGN (0x4)
                0x20012354                __ram1_free__ = .

.ram2_init      0x20000000        0x0 load address 0x08011a5c
                0x08011a5c                __ram2_init_text__ = LOADADDR (.ram2_init)
                0x20000000                __ram2_init__ = .
 *(.ram2_init)
 *(.ram2_init.*)
                0x20000000                . = ALIGN (0x4)

.ram2           0x20000000        0x0 load address 0x08011a5c
                0x20000000                __ram2_clear__ = .
 *(.ram2_clear)
 *(.ram2_clear.*)
                0x20000000                . = ALIGN (0x4)
                0x20000000                __ram2_noinit__ = .
 *(.ram2)
 *(.ram2.*)
                0x20000000                . = ALIGN (0x4)
                0x20000000                __ram2_free__ = .

.ram3_init      0x20014000        0x0 load address 0x08011a5c
                0x08011a5c                __ram3_init_text__ = LOADADDR (.ram3_init)
                0x20014000                __ram3_init__ = .
 *(.ram3_init)
 *(.ram3_init.*)
                0x20014000                . = ALIGN (0x4)

.ram3           0x20014000        0x0 load address 0x08011a5c
                0x20014000                __ram3_clear__ = .
 *(.ram3_clear)
 *(.ram3_clear.*)
                0x20014000                . = ALIGN (0x4)
                0x20014000                __ram3_noinit__ = .
 *(.ram3)
 *(.ram3.*)
                0x20014000                . = ALIGN (0x4)
                0x20014000                __ram3_free__ = .

.ram4_init      0x20018000        0x0 load address 0x08011a5c
                0x08011a5c                __ram4_init_text__ = LOADADDR (.ram4_init)
                0x20018000                __ram4_init__ = .
 *(.ram4_init)
 *(.ram4_init.*)
                0x20018000                . = ALIGN (0x4)

.ram4           0x20018000        0x0 load address 0x08011a5c
                0x20018000                __ram4_clear__ = .
 *(.ram4_clear)
 *(.ram4_clear.*)
                0x20018000                . = ALIGN (0x4)
                0x20018000                __ram4_noinit__ = .
 *(.ram4)
 *(.ram4.*)
                0x20018000                . = ALIGN (0x4)
                0x20018000                __ram4_free__ = .

.ram5_init      0x10000000        0x0 load address 0x08011a5c
                0x08011a5c                __ram5_init_text__ = LOADADDR (.ram5_init)
                0x10000000                __ram5_init__ = .
 *(.ram5_init)
 *(.ram5_init.*)
                0x10000000                . = ALIGN (0x4)

.ram5           0x10000000        0x0 load address 0x08011a5c
                0x10000000                __ram5_clear__ = .
 *(.ram5_clear)
 *(.ram5_clear.*)
                0x10000000                . = ALIGN (0x4)
                0x10000000                __ram5_noinit__ = .
 *(.ram5)
 *(.ram5.*)
                0x10000000                . = ALIGN (0x4)
                0x10000000                __ram5_free__ = .

.ram6_init      0x00000000        0x0 load address 0x08011a5c
                0x08011a5c                __ram6_init_text__ = LOADADDR (.ram6_init)
                0x00000000                __ram6_init__ = .
 *(.ram6_init)
 *(.ram6_init.*)
                0x00000000                . = ALIGN (0x4)

.ram6           0x00000000        0x0 load address 0x08011a5c
                0x00000000                __ram6_clear__ = .
 *(.ram6_clear)
 *(.ram6_clear.*)
                0x00000000                . = ALIGN (0x4)
                0x00000000                __ram6_noinit__ = .
 *(.ram6)
 *(.ram6.*)
                0x00000000                . = ALIGN (0x4)
                0x00000000                __ram6_free__ = .

.ram7_init      0x00000000        0x0 load address 0x08011a5c
                0x08011a5c                __ram7_init_text__ = LOADADDR (.ram7_init)
                0x00000000                __ram7_init__ = .
 *(.ram7_init)
 *(.ram7_init.*)
                0x00000000                . = ALIGN (0x4)

.ram7           0x00000000        0x0 load address 0x08011a5c
                0x00000000                __ram7_clear__ = .
 *(.ram7_clear)
 *(.ram7_clear.*)
                0x00000000                . = ALIGN (0x4)
                0x00000000                __ram7_noinit__ = .
 *(.ram7)
 *(.ram7.*)
                0x00000000                . = ALIGN (0x4)
                0x00000000                __ram7_free__ = .

.flash0         0x08011a5c        0x0
                0x08011a5c                __flash0_init__ = .
 *(.flash0_init)
 *(.flash0_init.*)
                0x08011a5c                __flash0_free__ = .

.flash1         0x00000000        0x0
                0x00000000                __flash1_init__ = .
 *(.flash1_init)
 *(.flash1_init.*)
                0x00000000                __flash1_free__ = .

.flash2         0x00000000        0x0
                0x00000000                __flash2_init__ = .
 *(.flash2_init)
 *(.flash2_init.*)
                0x00000000                __flash2_free__ = .

.flash3         0x00000000        0x0
                0x00000000                __flash3_init__ = .
 *(.flash3_init)
 *(.flash3_init.*)
                0x00000000                __flash3_free__ = .

.flash4         0x00000000        0x0
                0x00000000                __flash4_init__ = .
 *(.flash4_init)
 *(.flash4_init.*)
                0x00000000                __flash4_free__ = .

.flash5         0x00000000        0x0
                0x00000000                __flash5_init__ = .
 *(.flash5_init)
 *(.flash5_init.*)
                0x00000000                __flash5_free__ = .

.flash6         0x00000000        0x0
                0x00000000                __flash6_init__ = .
 *(.flash6_init)
 *(.flash6_init.*)
                0x00000000                __flash6_free__ = .

.flash7         0x00000000        0x0
                0x00000000                __flash7_init__ = .
 *(.flash7_init)
 *(.flash7_init.*)
                0x00000000                __flash7_free__ = .

.heap           0x20012354     0x5cac
                0x20012358                . = ALIGN (0x8)
 *fill*         0x20012354        0x4 
                0x20012358                __heap_base__ = .
                0x20018000                . = (ORIGIN (HEAP_RAM) + LENGTH (HEAP_RAM))
 *fill*         0x20012358     0x5ca8 
                0x20018000                __heap_end__ = .
                0x00000400                __process_stack_size__ = 0x400
                0x00000400                __main_stack_size__ = 0x400
START GROUP
LOAD c:/chibistudio/tools/gnu tools arm embedded/10.3 2021.07/bin/../lib/gcc/arm-none-eabi/10.3.1/thumb/v7e-m/nofp\libgcc.a
LOAD c:/chibistudio/tools/gnu tools arm embedded/10.3 2021.07/bin/../lib/gcc/arm-none-eabi/10.3.1/../../../../arm-none-eabi/lib/thumb/v7e-m/nofp\libg.a
LOAD c:/chibistudio/tools/gnu tools arm embedded/10.3 2021.07/bin/../lib/gcc/arm-none-eabi/10.3.1/../../../../arm-none-eabi/lib/thumb/v7e-m/nofp\libc.a
END GROUP
OUTPUT(build/APS_DIGITAL_CGG.elf elf32-littlearm)
LOAD linker stubs

.ARM.attributes
                0x00000000       0x2f
 .ARM.attributes
                0x00000000       0x21 ./build/obj/crt0_v7m.o
 .ARM.attributes
                0x00000021       0x21 ./build/obj/vectors.o
 .ARM.attributes
                0x00000042       0x21 ./build/obj/chcoreasm.o
 .ARM.attributes
                0x00000063       0x2c C:\Users\zerog\AppData\Local\Temp\APS_DIGITAL_CGG.elf.PLIgTd.ltrans0.ltrans.o
 .ARM.attributes
                0x0000008f       0x2e c:/chibistudio/tools/gnu tools arm embedded/10.3 2021.07/bin/../lib/gcc/arm-none-eabi/10.3.1/../../../../arm-none-eabi/lib/thumb/v7e-m/nofp\libm.a(lib_a-s_round.o)
 .ARM.attributes
                0x000000bd       0x2e c:/chibistudio/tools/gnu tools arm embedded/10.3 2021.07/bin/../lib/gcc/arm-none-eabi/10.3.1/../../../../arm-none-eabi/lib/thumb/v7e-m/nofp\libm.a(lib_a-w_exp2.o)
 .ARM.attributes
                0x000000eb       0x2e c:/chibistudio/tools/gnu tools arm embedded/10.3 2021.07/bin/../lib/gcc/arm-none-eabi/10.3.1/../../../../arm-none-eabi/lib/thumb/v7e-m/nofp\libm.a(lib_a-w_log.o)
 .ARM.attributes
                0x00000119       0x2e c:/chibistudio/tools/gnu tools arm embedded/10.3 2021.07/bin/../lib/gcc/arm-none-eabi/10.3.1/../../../../arm-none-eabi/lib/thumb/v7e-m/nofp\libm.a(lib_a-w_pow.o)
 .ARM.attributes
                0x00000147       0x2e c:/chibistudio/tools/gnu tools arm embedded/10.3 2021.07/bin/../lib/gcc/arm-none-eabi/10.3.1/../../../../arm-none-eabi/lib/thumb/v7e-m/nofp\libm.a(lib_a-e_log.o)
 .ARM.attributes
                0x00000175       0x2e c:/chibistudio/tools/gnu tools arm embedded/10.3 2021.07/bin/../lib/gcc/arm-none-eabi/10.3.1/../../../../arm-none-eabi/lib/thumb/v7e-m/nofp\libm.a(lib_a-e_pow.o)
 .ARM.attributes
                0x000001a3       0x2e c:/chibistudio/tools/gnu tools arm embedded/10.3 2021.07/bin/../lib/gcc/arm-none-eabi/10.3.1/../../../../arm-none-eabi/lib/thumb/v7e-m/nofp\libm.a(lib_a-e_sqrt.o)
 .ARM.attributes
                0x000001d1       0x2e c:/chibistudio/tools/gnu tools arm embedded/10.3 2021.07/bin/../lib/gcc/arm-none-eabi/10.3.1/../../../../arm-none-eabi/lib/thumb/v7e-m/nofp\libm.a(lib_a-math_err.o)
 .ARM.attributes
                0x000001ff       0x2e c:/chibistudio/tools/gnu tools arm embedded/10.3 2021.07/bin/../lib/gcc/arm-none-eabi/10.3.1/../../../../arm-none-eabi/lib/thumb/v7e-m/nofp\libm.a(lib_a-s_fabs.o)
 .ARM.attributes
                0x0000022d       0x2e c:/chibistudio/tools/gnu tools arm embedded/10.3 2021.07/bin/../lib/gcc/arm-none-eabi/10.3.1/../../../../arm-none-eabi/lib/thumb/v7e-m/nofp\libm.a(lib_a-s_finite.o)
 .ARM.attributes
                0x0000025b       0x2e c:/chibistudio/tools/gnu tools arm embedded/10.3 2021.07/bin/../lib/gcc/arm-none-eabi/10.3.1/../../../../arm-none-eabi/lib/thumb/v7e-m/nofp\libm.a(lib_a-s_nan.o)
 .ARM.attributes
                0x00000289       0x2e c:/chibistudio/tools/gnu tools arm embedded/10.3 2021.07/bin/../lib/gcc/arm-none-eabi/10.3.1/../../../../arm-none-eabi/lib/thumb/v7e-m/nofp\libm.a(lib_a-s_scalbn.o)
 .ARM.attributes
                0x000002b7       0x1e c:/chibistudio/tools/gnu tools arm embedded/10.3 2021.07/bin/../lib/gcc/arm-none-eabi/10.3.1/thumb/v7e-m/nofp\libgcc.a(_arm_addsubdf3.o)
 .ARM.attributes
                0x000002d5       0x1e c:/chibistudio/tools/gnu tools arm embedded/10.3 2021.07/bin/../lib/gcc/arm-none-eabi/10.3.1/thumb/v7e-m/nofp\libgcc.a(_arm_muldivdf3.o)
 .ARM.attributes
                0x000002f3       0x1e c:/chibistudio/tools/gnu tools arm embedded/10.3 2021.07/bin/../lib/gcc/arm-none-eabi/10.3.1/thumb/v7e-m/nofp\libgcc.a(_arm_cmpdf2.o)
 .ARM.attributes
                0x00000311       0x1e c:/chibistudio/tools/gnu tools arm embedded/10.3 2021.07/bin/../lib/gcc/arm-none-eabi/10.3.1/thumb/v7e-m/nofp\libgcc.a(_arm_unorddf2.o)
 .ARM.attributes
                0x0000032f       0x1e c:/chibistudio/tools/gnu tools arm embedded/10.3 2021.07/bin/../lib/gcc/arm-none-eabi/10.3.1/thumb/v7e-m/nofp\libgcc.a(_arm_mulsf3.o)
 .ARM.attributes
                0x0000034d       0x1e c:/chibistudio/tools/gnu tools arm embedded/10.3 2021.07/bin/../lib/gcc/arm-none-eabi/10.3.1/thumb/v7e-m/nofp\libgcc.a(_arm_fixdfsi.o)
 .ARM.attributes
                0x0000036b       0x1e c:/chibistudio/tools/gnu tools arm embedded/10.3 2021.07/bin/../lib/gcc/arm-none-eabi/10.3.1/thumb/v7e-m/nofp\libgcc.a(_arm_fixsfsi.o)
 .ARM.attributes
                0x00000389       0x1e c:/chibistudio/tools/gnu tools arm embedded/10.3 2021.07/bin/../lib/gcc/arm-none-eabi/10.3.1/thumb/v7e-m/nofp\libgcc.a(_arm_fixunssfsi.o)
 .ARM.attributes
                0x000003a7       0x2e c:/chibistudio/tools/gnu tools arm embedded/10.3 2021.07/bin/../lib/gcc/arm-none-eabi/10.3.1/../../../../arm-none-eabi/lib/thumb/v7e-m/nofp\libg.a(lib_a-ctype_.o)
 .ARM.attributes
                0x000003d5       0x2e c:/chibistudio/tools/gnu tools arm embedded/10.3 2021.07/bin/../lib/gcc/arm-none-eabi/10.3.1/../../../../arm-none-eabi/lib/thumb/v7e-m/nofp\libg.a(lib_a-errno.o)
 .ARM.attributes
                0x00000403       0x2e c:/chibistudio/tools/gnu tools arm embedded/10.3 2021.07/bin/../lib/gcc/arm-none-eabi/10.3.1/../../../../arm-none-eabi/lib/thumb/v7e-m/nofp\libg.a(lib_a-impure.o)
 .ARM.attributes
                0x00000431       0x2e c:/chibistudio/tools/gnu tools arm embedded/10.3 2021.07/bin/../lib/gcc/arm-none-eabi/10.3.1/../../../../arm-none-eabi/lib/thumb/v7e-m/nofp\libg.a(lib_a-strtod.o)
 .ARM.attributes
                0x0000045f       0x2e c:/chibistudio/tools/gnu tools arm embedded/10.3 2021.07/bin/../lib/gcc/arm-none-eabi/10.3.1/../../../../arm-none-eabi/lib/thumb/v7e-m/nofp\libg.a(lib_a-gdtoa-gethex.o)
 .ARM.attributes
                0x0000048d       0x2e c:/chibistudio/tools/gnu tools arm embedded/10.3 2021.07/bin/../lib/gcc/arm-none-eabi/10.3.1/../../../../arm-none-eabi/lib/thumb/v7e-m/nofp\libg.a(lib_a-gdtoa-hexnan.o)
 .ARM.attributes
                0x000004bb       0x2e c:/chibistudio/tools/gnu tools arm embedded/10.3 2021.07/bin/../lib/gcc/arm-none-eabi/10.3.1/../../../../arm-none-eabi/lib/thumb/v7e-m/nofp\libg.a(lib_a-lnumeric.o)
 .ARM.attributes
                0x000004e9       0x2e c:/chibistudio/tools/gnu tools arm embedded/10.3 2021.07/bin/../lib/gcc/arm-none-eabi/10.3.1/../../../../arm-none-eabi/lib/thumb/v7e-m/nofp\libg.a(lib_a-locale.o)
 .ARM.attributes
                0x00000517       0x2e c:/chibistudio/tools/gnu tools arm embedded/10.3 2021.07/bin/../lib/gcc/arm-none-eabi/10.3.1/../../../../arm-none-eabi/lib/thumb/v7e-m/nofp\libg.a(lib_a-mbtowc_r.o)
 .ARM.attributes
                0x00000545       0x1c c:/chibistudio/tools/gnu tools arm embedded/10.3 2021.07/bin/../lib/gcc/arm-none-eabi/10.3.1/../../../../arm-none-eabi/lib/thumb/v7e-m/nofp\libg.a(lib_a-memcpy.o)
 .ARM.attributes
                0x00000561       0x2e c:/chibistudio/tools/gnu tools arm embedded/10.3 2021.07/bin/../lib/gcc/arm-none-eabi/10.3.1/../../../../arm-none-eabi/lib/thumb/v7e-m/nofp\libg.a(lib_a-mprec.o)
 .ARM.attributes
                0x0000058f       0x2e c:/chibistudio/tools/gnu tools arm embedded/10.3 2021.07/bin/../lib/gcc/arm-none-eabi/10.3.1/../../../../arm-none-eabi/lib/thumb/v7e-m/nofp\libg.a(lib_a-sf_nan.o)
 .ARM.attributes
                0x000005bd       0x1c c:/chibistudio/tools/gnu tools arm embedded/10.3 2021.07/bin/../lib/gcc/arm-none-eabi/10.3.1/../../../../arm-none-eabi/lib/thumb/v7e-m/nofp\libg.a(lib_a-strcmp.o)
 .ARM.attributes
                0x000005d9       0x1c c:/chibistudio/tools/gnu tools arm embedded/10.3 2021.07/bin/../lib/gcc/arm-none-eabi/10.3.1/../../../../arm-none-eabi/lib/thumb/v7e-m/nofp\libg.a(lib_a-strlen.o)
 .ARM.attributes
                0x000005f5       0x2e c:/chibistudio/tools/gnu tools arm embedded/10.3 2021.07/bin/../lib/gcc/arm-none-eabi/10.3.1/../../../../arm-none-eabi/lib/thumb/v7e-m/nofp\libg.a(lib_a-strncmp.o)
 .ARM.attributes
                0x00000623       0x2e c:/chibistudio/tools/gnu tools arm embedded/10.3 2021.07/bin/../lib/gcc/arm-none-eabi/10.3.1/../../../../arm-none-eabi/lib/thumb/v7e-m/nofp\libg.a(lib_a-wctomb_r.o)
 .ARM.attributes
                0x00000651       0x2e c:/chibistudio/tools/gnu tools arm embedded/10.3 2021.07/bin/../lib/gcc/arm-none-eabi/10.3.1/../../../../arm-none-eabi/lib/thumb/v7e-m/nofp\libg.a(lib_a-assert.o)
 .ARM.attributes
                0x0000067f       0x2e c:/chibistudio/tools/gnu tools arm embedded/10.3 2021.07/bin/../lib/gcc/arm-none-eabi/10.3.1/../../../../arm-none-eabi/lib/thumb/v7e-m/nofp\libg.a(lib_a-callocr.o)
 .ARM.attributes
                0x000006ad       0x2e c:/chibistudio/tools/gnu tools arm embedded/10.3 2021.07/bin/../lib/gcc/arm-none-eabi/10.3.1/../../../../arm-none-eabi/lib/thumb/v7e-m/nofp\libg.a(lib_a-fiprintf.o)
 .ARM.attributes
                0x000006db       0x2e c:/chibistudio/tools/gnu tools arm embedded/10.3 2021.07/bin/../lib/gcc/arm-none-eabi/10.3.1/../../../../arm-none-eabi/lib/thumb/v7e-m/nofp\libg.a(lib_a-mallocr.o)
 .ARM.attributes
                0x00000709       0x2e c:/chibistudio/tools/gnu tools arm embedded/10.3 2021.07/bin/../lib/gcc/arm-none-eabi/10.3.1/../../../../arm-none-eabi/lib/thumb/v7e-m/nofp\libg.a(lib_a-memset.o)
 .ARM.attributes
                0x00000737       0x2e c:/chibistudio/tools/gnu tools arm embedded/10.3 2021.07/bin/../lib/gcc/arm-none-eabi/10.3.1/../../../../arm-none-eabi/lib/thumb/v7e-m/nofp\libg.a(lib_a-mlock.o)
 .ARM.attributes
                0x00000765       0x2e c:/chibistudio/tools/gnu tools arm embedded/10.3 2021.07/bin/../lib/gcc/arm-none-eabi/10.3.1/../../../../arm-none-eabi/lib/thumb/v7e-m/nofp\libg.a(lib_a-vfiprintf.o)
 .ARM.attributes
                0x00000793       0x2e c:/chibistudio/tools/gnu tools arm embedded/10.3 2021.07/bin/../lib/gcc/arm-none-eabi/10.3.1/../../../../arm-none-eabi/lib/thumb/v7e-m/nofp\libg.a(lib_a-wsetup.o)
 .ARM.attributes
                0x000007c1       0x2e c:/chibistudio/tools/gnu tools arm embedded/10.3 2021.07/bin/../lib/gcc/arm-none-eabi/10.3.1/../../../../arm-none-eabi/lib/thumb/v7e-m/nofp\libg.a(lib_a-abort.o)
 .ARM.attributes
                0x000007ef       0x2e c:/chibistudio/tools/gnu tools arm embedded/10.3 2021.07/bin/../lib/gcc/arm-none-eabi/10.3.1/../../../../arm-none-eabi/lib/thumb/v7e-m/nofp\libg.a(lib_a-fflush.o)
 .ARM.attributes
                0x0000081d       0x2e c:/chibistudio/tools/gnu tools arm embedded/10.3 2021.07/bin/../lib/gcc/arm-none-eabi/10.3.1/../../../../arm-none-eabi/lib/thumb/v7e-m/nofp\libg.a(lib_a-findfp.o)
 .ARM.attributes
                0x0000084b       0x2e c:/chibistudio/tools/gnu tools arm embedded/10.3 2021.07/bin/../lib/gcc/arm-none-eabi/10.3.1/../../../../arm-none-eabi/lib/thumb/v7e-m/nofp\libg.a(lib_a-fputwc.o)
 .ARM.attributes
                0x00000879       0x2e c:/chibistudio/tools/gnu tools arm embedded/10.3 2021.07/bin/../lib/gcc/arm-none-eabi/10.3.1/../../../../arm-none-eabi/lib/thumb/v7e-m/nofp\libg.a(lib_a-freer.o)
 .ARM.attributes
                0x000008a7       0x2e c:/chibistudio/tools/gnu tools arm embedded/10.3 2021.07/bin/../lib/gcc/arm-none-eabi/10.3.1/../../../../arm-none-eabi/lib/thumb/v7e-m/nofp\libg.a(lib_a-fvwrite.o)
 .ARM.attributes
                0x000008d5       0x2e c:/chibistudio/tools/gnu tools arm embedded/10.3 2021.07/bin/../lib/gcc/arm-none-eabi/10.3.1/../../../../arm-none-eabi/lib/thumb/v7e-m/nofp\libg.a(lib_a-fwalk.o)
 .ARM.attributes
                0x00000903       0x2e c:/chibistudio/tools/gnu tools arm embedded/10.3 2021.07/bin/../lib/gcc/arm-none-eabi/10.3.1/../../../../arm-none-eabi/lib/thumb/v7e-m/nofp\libg.a(lib_a-localeconv.o)
 .ARM.attributes
                0x00000931       0x2e c:/chibistudio/tools/gnu tools arm embedded/10.3 2021.07/bin/../lib/gcc/arm-none-eabi/10.3.1/../../../../arm-none-eabi/lib/thumb/v7e-m/nofp\libg.a(lib_a-lock.o)
 .ARM.attributes
                0x0000095f       0x2e c:/chibistudio/tools/gnu tools arm embedded/10.3 2021.07/bin/../lib/gcc/arm-none-eabi/10.3.1/../../../../arm-none-eabi/lib/thumb/v7e-m/nofp\libg.a(lib_a-makebuf.o)
 .ARM.attributes
                0x0000098d       0x1c c:/chibistudio/tools/gnu tools arm embedded/10.3 2021.07/bin/../lib/gcc/arm-none-eabi/10.3.1/../../../../arm-none-eabi/lib/thumb/v7e-m/nofp\libg.a(lib_a-memchr.o)
 .ARM.attributes
                0x000009a9       0x2e c:/chibistudio/tools/gnu tools arm embedded/10.3 2021.07/bin/../lib/gcc/arm-none-eabi/10.3.1/../../../../arm-none-eabi/lib/thumb/v7e-m/nofp\libg.a(lib_a-memmove.o)
 .ARM.attributes
                0x000009d7       0x2e c:/chibistudio/tools/gnu tools arm embedded/10.3 2021.07/bin/../lib/gcc/arm-none-eabi/10.3.1/../../../../arm-none-eabi/lib/thumb/v7e-m/nofp\libg.a(lib_a-reallocr.o)
 .ARM.attributes
                0x00000a05       0x2e c:/chibistudio/tools/gnu tools arm embedded/10.3 2021.07/bin/../lib/gcc/arm-none-eabi/10.3.1/../../../../arm-none-eabi/lib/thumb/v7e-m/nofp\libg.a(lib_a-signal.o)
 .ARM.attributes
                0x00000a33       0x2e c:/chibistudio/tools/gnu tools arm embedded/10.3 2021.07/bin/../lib/gcc/arm-none-eabi/10.3.1/../../../../arm-none-eabi/lib/thumb/v7e-m/nofp\libg.a(lib_a-signalr.o)
 .ARM.attributes
                0x00000a61       0x2e c:/chibistudio/tools/gnu tools arm embedded/10.3 2021.07/bin/../lib/gcc/arm-none-eabi/10.3.1/../../../../arm-none-eabi/lib/thumb/v7e-m/nofp\libg.a(lib_a-stdio.o)
 .ARM.attributes
                0x00000a8f       0x2e c:/chibistudio/tools/gnu tools arm embedded/10.3 2021.07/bin/../lib/gcc/arm-none-eabi/10.3.1/../../../../arm-none-eabi/lib/thumb/v7e-m/nofp\libg.a(lib_a-strncpy.o)
 .ARM.attributes
                0x00000abd       0x2e c:/chibistudio/tools/gnu tools arm embedded/10.3 2021.07/bin/../lib/gcc/arm-none-eabi/10.3.1/../../../../arm-none-eabi/lib/thumb/v7e-m/nofp\libg.a(lib_a-wbuf.o)
 .ARM.attributes
                0x00000aeb       0x2e c:/chibistudio/tools/gnu tools arm embedded/10.3 2021.07/bin/../lib/gcc/arm-none-eabi/10.3.1/../../../../arm-none-eabi/lib/thumb/v7e-m/nofp\libg.a(lib_a-wcrtomb.o)
 .ARM.attributes
                0x00000b19       0x2e c:/chibistudio/tools/gnu tools arm embedded/10.3 2021.07/bin/../lib/gcc/arm-none-eabi/10.3.1/../../../../arm-none-eabi/lib/thumb/v7e-m/nofp\libg.a(lib_a-fclose.o)
 .ARM.attributes
                0x00000b47       0x2e c:/chibistudio/tools/gnu tools arm embedded/10.3 2021.07/bin/../lib/gcc/arm-none-eabi/10.3.1/../../../../arm-none-eabi/lib/thumb/v7e-m/nofp\libg.a(lib_a-reent.o)
 .ARM.attributes
                0x00000b75       0x2e c:/chibistudio/tools/gnu tools arm embedded/10.3 2021.07/bin/../lib/gcc/arm-none-eabi/10.3.1/../../../../arm-none-eabi/lib/thumb/v7e-m/nofp\libg.a(lib_a-strcasecmp.o)
 .ARM.attributes
                0x00000ba3       0x2e c:/chibistudio/tools/gnu tools arm embedded/10.3 2021.07/bin/../lib/gcc/arm-none-eabi/10.3.1/../../../../arm-none-eabi/lib/thumb/v7e-m/nofp\libg.a(lib_a-strchr.o)
 .ARM.attributes
                0x00000bd1       0x2e c:/chibistudio/tools/gnu tools arm embedded/10.3 2021.07/bin/../lib/gcc/arm-none-eabi/10.3.1/../../../../arm-none-eabi/lib/thumb/v7e-m/nofp\libg.a(lib_a-strpbrk.o)
 .ARM.attributes
                0x00000bff       0x2e c:/chibistudio/tools/gnu tools arm embedded/10.3 2021.07/bin/../lib/gcc/arm-none-eabi/10.3.1/../../../../arm-none-eabi/lib/thumb/v7e-m/nofp\libg.a(lib_a-strspn.o)
 .ARM.attributes
                0x00000c2d       0x1e c:/chibistudio/tools/gnu tools arm embedded/10.3 2021.07/bin/../lib/gcc/arm-none-eabi/10.3.1/thumb/v7e-m/nofp\libgcc.a(_arm_fixunsdfsi.o)
 .ARM.attributes
                0x00000c4b       0x1e c:/chibistudio/tools/gnu tools arm embedded/10.3 2021.07/bin/../lib/gcc/arm-none-eabi/10.3.1/thumb/v7e-m/nofp\libgcc.a(_arm_truncdfsf2.o)
 .ARM.attributes
                0x00000c69       0x1e c:/chibistudio/tools/gnu tools arm embedded/10.3 2021.07/bin/../lib/gcc/arm-none-eabi/10.3.1/thumb/v7e-m/nofp\libgcc.a(_arm_cmpsf2.o)
 .ARM.attributes
                0x00000c87       0x1e c:/chibistudio/tools/gnu tools arm embedded/10.3 2021.07/bin/../lib/gcc/arm-none-eabi/10.3.1/thumb/v7e-m/nofp\libgcc.a(_arm_unordsf2.o)
 .ARM.attributes
                0x00000ca5       0x1e c:/chibistudio/tools/gnu tools arm embedded/10.3 2021.07/bin/../lib/gcc/arm-none-eabi/10.3.1/thumb/v7e-m/nofp\libgcc.a(_aeabi_uldivmod.o)
 .ARM.attributes
                0x00000cc3       0x2e c:/chibistudio/tools/gnu tools arm embedded/10.3 2021.07/bin/../lib/gcc/arm-none-eabi/10.3.1/thumb/v7e-m/nofp\libgcc.a(_fixdfdi.o)
 .ARM.attributes
                0x00000cf1       0x2e c:/chibistudio/tools/gnu tools arm embedded/10.3 2021.07/bin/../lib/gcc/arm-none-eabi/10.3.1/thumb/v7e-m/nofp\libgcc.a(_fixunsdfdi.o)
 .ARM.attributes
                0x00000d1f       0x2e c:/chibistudio/tools/gnu tools arm embedded/10.3 2021.07/bin/../lib/gcc/arm-none-eabi/10.3.1/thumb/v7e-m/nofp\libgcc.a(_udivmoddi4.o)
 .ARM.attributes
                0x00000d4d       0x1e c:/chibistudio/tools/gnu tools arm embedded/10.3 2021.07/bin/../lib/gcc/arm-none-eabi/10.3.1/thumb/v7e-m/nofp\libgcc.a(_dvmd_tls.o)

.comment        0x00000000       0x49
 .comment       0x00000000       0x49 C:\Users\zerog\AppData\Local\Temp\APS_DIGITAL_CGG.elf.PLIgTd.ltrans0.ltrans.o
                                 0x4a (size before relaxing)

.debug_line     0x00000000    0x1952e
 .debug_line    0x00000000       0xd0 ./build/obj/crt0_v7m.o
 .debug_line    0x000000d0       0x78 ./build/obj/vectors.o
 .debug_line    0x00000148       0xa6 ./build/obj/chcoreasm.o
 .debug_line    0x000001ee    0x109a5 C:\Users\zerog\AppData\Local\Temp\APS_DIGITAL_CGG.elf.PLIgTd.ltrans0.ltrans.o
 .debug_line    0x00010b93      0x12c C:\Users\zerog\AppData\Local\Temp\ccOf8eYl.debug.temp.o
 .debug_line    0x00010cbf       0x73 C:\Users\zerog\AppData\Local\Temp\cc87Y6jq.debug.temp.o
 .debug_line    0x00010d32      0x1bf C:\Users\zerog\AppData\Local\Temp\ccurFesu.debug.temp.o
 .debug_line    0x00010ef1      0x351 C:\Users\zerog\AppData\Local\Temp\ccmnLjNC.debug.temp.o
 .debug_line    0x00011242      0x31f C:\Users\zerog\AppData\Local\Temp\ccyJdIeV.debug.temp.o
 .debug_line    0x00011561      0x3c5 C:\Users\zerog\AppData\Local\Temp\cc6IWZ33.debug.temp.o
 .debug_line    0x00011926      0x378 C:\Users\zerog\AppData\Local\Temp\ccSdODt8.debug.temp.o
 .debug_line    0x00011c9e      0x46a C:\Users\zerog\AppData\Local\Temp\ccgs7e0c.debug.temp.o
 .debug_line    0x00012108      0x389 C:\Users\zerog\AppData\Local\Temp\ccEGqQwh.debug.temp.o
 .debug_line    0x00012491      0x165 C:\Users\zerog\AppData\Local\Temp\ccOdrvfl.debug.temp.o
 .debug_line    0x000125f6      0x79b C:\Users\zerog\AppData\Local\Temp\ccYKraYo.debug.temp.o
 .debug_line    0x00012d91      0x28c C:\Users\zerog\AppData\Local\Temp\cccunSus.debug.temp.o
 .debug_line    0x0001301d      0x37b C:\Users\zerog\AppData\Local\Temp\ccEWeiyz.debug.temp.o
 .debug_line    0x00013398      0x2a8 C:\Users\zerog\AppData\Local\Temp\ccWHOCKG.debug.temp.o
 .debug_line    0x00013640      0x492 C:\Users\zerog\AppData\Local\Temp\ccufxHJK.debug.temp.o
 .debug_line    0x00013ad2      0x282 C:\Users\zerog\AppData\Local\Temp\cc2MfMIO.debug.temp.o
 .debug_line    0x00013d54      0x21f C:\Users\zerog\AppData\Local\Temp\ccAokFMS.debug.temp.o
 .debug_line    0x00013f73      0x3fc C:\Users\zerog\AppData\Local\Temp\cc8ZoyQW.debug.temp.o
 .debug_line    0x0001436f      0x264 C:\Users\zerog\AppData\Local\Temp\cckqXmG0.debug.temp.o
 .debug_line    0x000145d3      0x1e2 C:\Users\zerog\AppData\Local\Temp\ccwQvbw4.debug.temp.o
 .debug_line    0x000147b5      0x316 C:\Users\zerog\AppData\Local\Temp\ccyJJYkc.debug.temp.o
 .debug_line    0x00014acb      0x22b C:\Users\zerog\AppData\Local\Temp\ccGJFprf.debug.temp.o
 .debug_line    0x00014cf6      0x272 C:\Users\zerog\AppData\Local\Temp\ccOJBQxi.debug.temp.o
 .debug_line    0x00014f68      0x2b0 C:\Users\zerog\AppData\Local\Temp\ccWXwNWo.debug.temp.o
 .debug_line    0x00015218      0x27b C:\Users\zerog\AppData\Local\Temp\cc0zZg9r.debug.temp.o
 .debug_line    0x00015493      0x290 C:\Users\zerog\AppData\Local\Temp\ccEmOf7u.debug.temp.o
 .debug_line    0x00015723      0x32e C:\Users\zerog\AppData\Local\Temp\cci9Ce5x.debug.temp.o
 .debug_line    0x00015a51      0x26e C:\Users\zerog\AppData\Local\Temp\ccivMN7A.debug.temp.o
 .debug_line    0x00015cbf      0x272 C:\Users\zerog\AppData\Local\Temp\cciRVmaE.debug.temp.o
 .debug_line    0x00015f31      0x2fe C:\Users\zerog\AppData\Local\Temp\ccYooIzH.debug.temp.o
 .debug_line    0x0001622f      0x28b C:\Users\zerog\AppData\Local\Temp\ccUoz1sO.debug.temp.o
 .debug_line    0x000164ba      0x290 C:\Users\zerog\AppData\Local\Temp\ccKVajfV.debug.temp.o
 .debug_line    0x0001674a      0x33f C:\Users\zerog\AppData\Local\Temp\ccUAJlU1.debug.temp.o
 .debug_line    0x00016a89      0x320 C:\Users\zerog\AppData\Local\Temp\ccubp4g5.debug.temp.o
 .debug_line    0x00016da9      0x313 C:\Users\zerog\AppData\Local\Temp\ccOXoiP7.debug.temp.o
 .debug_line    0x000170bc      0x2d3 C:\Users\zerog\AppData\Local\Temp\cc8Jowna.debug.temp.o
 .debug_line    0x0001738f      0x324 C:\Users\zerog\AppData\Local\Temp\ccIWTj0c.debug.temp.o
 .debug_line    0x000176b3      0x2b0 C:\Users\zerog\AppData\Local\Temp\cci9o7Cf.debug.temp.o
 .debug_line    0x00017963      0x20f C:\Users\zerog\AppData\Local\Temp\ccEy4Gqk.debug.temp.o
 .debug_line    0x00017b72      0x389 C:\Users\zerog\AppData\Local\Temp\ccM4C1By.debug.temp.o
 .debug_line    0x00017efb      0x321 C:\Users\zerog\AppData\Local\Temp\ccSvdKiB.debug.temp.o
 .debug_line    0x0001821c      0x1c4 C:\Users\zerog\AppData\Local\Temp\ccYWNsZD.debug.temp.o
 .debug_line    0x000183e0      0x38f C:\Users\zerog\AppData\Local\Temp\cc4nobGG.debug.temp.o
 .debug_line    0x0001876f      0x4ca C:\Users\zerog\AppData\Local\Temp\ccIK33rJ.debug.temp.o
 .debug_line    0x00018c39      0x522 C:\Users\zerog\AppData\Local\Temp\ccm7IWdM.debug.temp.o
 .debug_line    0x0001915b      0x3d3 C:\Users\zerog\AppData\Local\Temp\ccIs02TS.debug.temp.o

.debug_info     0x00000000    0x3e352
 .debug_info    0x00000000       0x26 ./build/obj/crt0_v7m.o
 .debug_info    0x00000026       0x26 ./build/obj/vectors.o
 .debug_info    0x0000004c       0x26 ./build/obj/chcoreasm.o
 .debug_info    0x00000072    0x16b65 C:\Users\zerog\AppData\Local\Temp\APS_DIGITAL_CGG.elf.PLIgTd.ltrans0.ltrans.o
 .debug_info    0x00016bd7      0x2c8 C:\Users\zerog\AppData\Local\Temp\ccOf8eYl.debug.temp.o
                0x00016bd7                crt1.c.40f9f977
 .debug_info    0x00016e9f       0x8a C:\Users\zerog\AppData\Local\Temp\cc87Y6jq.debug.temp.o
                0x00016e9f                hal.c.ed89870b
 .debug_info    0x00016f29      0x381 C:\Users\zerog\AppData\Local\Temp\ccurFesu.debug.temp.o
                0x00016f29                hal_st.c.877d46c7
 .debug_info    0x000172aa     0x1108 C:\Users\zerog\AppData\Local\Temp\ccmnLjNC.debug.temp.o
                0x000172aa                hal_buffers.c.701d60b6
 .debug_info    0x000183b2      0xea8 C:\Users\zerog\AppData\Local\Temp\ccyJdIeV.debug.temp.o
                0x000183b2                hal_gpt.c.9bf473d7
 .debug_info    0x0001925a     0x18d1 C:\Users\zerog\AppData\Local\Temp\cc6IWZ33.debug.temp.o
                0x0001925a                hal_serial_usb.c.c33edcca
 .debug_info    0x0001ab2b     0x14d2 C:\Users\zerog\AppData\Local\Temp\ccSdODt8.debug.temp.o
                0x0001ab2b                hal_sio.c.3a74005c
 .debug_info    0x0001bffd     0x1495 C:\Users\zerog\AppData\Local\Temp\ccgs7e0c.debug.temp.o
                0x0001bffd                hal_spi.c.4f67d459
 .debug_info    0x0001d492     0x13dc C:\Users\zerog\AppData\Local\Temp\ccEGqQwh.debug.temp.o
                0x0001d492                hal_usb.c.3491cbd8
 .debug_info    0x0001e86e      0x4bc C:\Users\zerog\AppData\Local\Temp\ccOdrvfl.debug.temp.o
                0x0001e86e                nvic.c.27579977
 .debug_info    0x0001ed2a     0x16e5 C:\Users\zerog\AppData\Local\Temp\ccYKraYo.debug.temp.o
                0x0001ed2a                stm32_isr.c.ae1c9d29
 .debug_info    0x0002040f      0x685 C:\Users\zerog\AppData\Local\Temp\cccunSus.debug.temp.o
                0x0002040f                hal_lld.c.571a36c8
 .debug_info    0x00020a94     0x11f8 C:\Users\zerog\AppData\Local\Temp\ccEWeiyz.debug.temp.o
                0x00020a94                stm32_dma.c.8ce53084
 .debug_info    0x00021c8c      0x6ab C:\Users\zerog\AppData\Local\Temp\ccWHOCKG.debug.temp.o
                0x00021c8c                hal_pal_lld.c.e0b37295
 .debug_info    0x00022337     0x13f2 C:\Users\zerog\AppData\Local\Temp\ccufxHJK.debug.temp.o
                0x00022337                hal_spi_v2_lld.c.db223b00
 .debug_info    0x00023729      0x5c4 C:\Users\zerog\AppData\Local\Temp\cc2MfMIO.debug.temp.o
                0x00023729                hal_st_lld.c.dc491b4f
 .debug_info    0x00023ced      0x705 C:\Users\zerog\AppData\Local\Temp\ccAokFMS.debug.temp.o
                0x00023ced                hal_gpt_lld.c.8f44f5ee
 .debug_info    0x000243f2     0x13cb C:\Users\zerog\AppData\Local\Temp\cc8ZoyQW.debug.temp.o
                0x000243f2                hal_sio_lld.c.166fe9b6
 .debug_info    0x000257bd     0x100b C:\Users\zerog\AppData\Local\Temp\cckqXmG0.debug.temp.o
                0x000257bd                hal_usb_lld.c.24148865
 .debug_info    0x000267c8      0x522 C:\Users\zerog\AppData\Local\Temp\ccwQvbw4.debug.temp.o
                0x000267c8                board.c.f3961d47
 .debug_info    0x00026cea      0xe84 C:\Users\zerog\AppData\Local\Temp\ccyJJYkc.debug.temp.o
                0x00026cea                chsys.c.835d4f49
 .debug_info    0x00027b6e      0x939 C:\Users\zerog\AppData\Local\Temp\ccGJFprf.debug.temp.o
                0x00027b6e                chrfcu.c.b781875a
 .debug_info    0x000284a7      0xa41 C:\Users\zerog\AppData\Local\Temp\ccOJBQxi.debug.temp.o
                0x000284a7                chdebug.c.c20c48de
 .debug_info    0x00028ee8      0xfb0 C:\Users\zerog\AppData\Local\Temp\ccWXwNWo.debug.temp.o
                0x00028ee8                chvt.c.9f328f24
 .debug_info    0x00029e98      0xead C:\Users\zerog\AppData\Local\Temp\cc0zZg9r.debug.temp.o
                0x00029e98                chschd.c.b93d333f
 .debug_info    0x0002ad45      0xdb5 C:\Users\zerog\AppData\Local\Temp\ccEmOf7u.debug.temp.o
                0x0002ad45                chinstances.c.97a5fa78
 .debug_info    0x0002bafa     0x11df C:\Users\zerog\AppData\Local\Temp\cci9Ce5x.debug.temp.o
                0x0002bafa                chthreads.c.7ebed146
 .debug_info    0x0002ccd9      0xbc5 C:\Users\zerog\AppData\Local\Temp\ccivMN7A.debug.temp.o
                0x0002ccd9                chtm.c.b5cff383
 .debug_info    0x0002d89e      0x979 C:\Users\zerog\AppData\Local\Temp\cciRVmaE.debug.temp.o
                0x0002d89e                chstats.c.6fbf08d4
 .debug_info    0x0002e217      0xd5e C:\Users\zerog\AppData\Local\Temp\ccYooIzH.debug.temp.o
                0x0002e217                chregistry.c.8ef5b2a1
 .debug_info    0x0002ef75      0xc3f C:\Users\zerog\AppData\Local\Temp\ccUoz1sO.debug.temp.o
                0x0002ef75                chmtx.c.2cc02536
 .debug_info    0x0002fbb4      0xeec C:\Users\zerog\AppData\Local\Temp\ccKVajfV.debug.temp.o
                0x0002fbb4                chevents.c.61aab498
 .debug_info    0x00030aa0      0xc82 C:\Users\zerog\AppData\Local\Temp\ccUAJlU1.debug.temp.o
                0x00030aa0                chdynamic.c.fd75bcaf
 .debug_info    0x00031722      0xde7 C:\Users\zerog\AppData\Local\Temp\ccubp4g5.debug.temp.o
                0x00031722                chmboxes.c.1b0838bd
 .debug_info    0x00032509      0xb31 C:\Users\zerog\AppData\Local\Temp\ccOXoiP7.debug.temp.o
                0x00032509                chmemcore.c.3b540bcf
 .debug_info    0x0003303a      0xbd8 C:\Users\zerog\AppData\Local\Temp\cc8Jowna.debug.temp.o
                0x0003303a                chmemheaps.c.efb3719a
 .debug_info    0x00033c12      0xd2b C:\Users\zerog\AppData\Local\Temp\ccIWTj0c.debug.temp.o
                0x00033c12                chmempools.c.4ba2577e
 .debug_info    0x0003493d     0x116d C:\Users\zerog\AppData\Local\Temp\cci9o7Cf.debug.temp.o
                0x0003493d                chcore.c.b55a5289
 .debug_info    0x00035aaa      0x5c2 C:\Users\zerog\AppData\Local\Temp\ccEy4Gqk.debug.temp.o
                0x00035aaa                chprintf.c.8443f0b2
 .debug_info    0x0003606c      0xe71 C:\Users\zerog\AppData\Local\Temp\ccM4C1By.debug.temp.o
                0x0003606c                shell.c.4f69489a
 .debug_info    0x00036edd      0xc06 C:\Users\zerog\AppData\Local\Temp\ccSvdKiB.debug.temp.o
                0x00036edd                shell_cmd.c.baa229aa
 .debug_info    0x00037ae3      0xd21 C:\Users\zerog\AppData\Local\Temp\ccYWNsZD.debug.temp.o
                0x00037ae3                syscalls.c.860b1368
 .debug_info    0x00038804     0x14ac C:\Users\zerog\AppData\Local\Temp\cc4nobGG.debug.temp.o
                0x00038804                usbcfg.c.35b45a3d
 .debug_info    0x00039cb0     0x1bdf C:\Users\zerog\AppData\Local\Temp\ccIK33rJ.debug.temp.o
                0x00039cb0                main.c.5c37fe26
 .debug_info    0x0003b88f     0x1a9b C:\Users\zerog\AppData\Local\Temp\ccm7IWdM.debug.temp.o
                0x0003b88f                digital_driver.c.f7f7f6cd
 .debug_info    0x0003d32a     0x1028 C:\Users\zerog\AppData\Local\Temp\ccIs02TS.debug.temp.o
                0x0003d32a                AD8460.c.0b7d08c6

.debug_abbrev   0x00000000     0x6399
 .debug_abbrev  0x00000000       0x14 ./build/obj/crt0_v7m.o
 .debug_abbrev  0x00000014       0x14 ./build/obj/vectors.o
 .debug_abbrev  0x00000028       0x14 ./build/obj/chcoreasm.o
 .debug_abbrev  0x0000003c      0x3ba C:\Users\zerog\AppData\Local\Temp\APS_DIGITAL_CGG.elf.PLIgTd.ltrans0.ltrans.o
 .debug_abbrev  0x000003f6       0xe5 C:\Users\zerog\AppData\Local\Temp\ccOf8eYl.debug.temp.o
 .debug_abbrev  0x000004db       0x46 C:\Users\zerog\AppData\Local\Temp\cc87Y6jq.debug.temp.o
 .debug_abbrev  0x00000521      0x15d C:\Users\zerog\AppData\Local\Temp\ccurFesu.debug.temp.o
 .debug_abbrev  0x0000067e      0x255 C:\Users\zerog\AppData\Local\Temp\ccmnLjNC.debug.temp.o
 .debug_abbrev  0x000008d3      0x259 C:\Users\zerog\AppData\Local\Temp\ccyJdIeV.debug.temp.o
 .debug_abbrev  0x00000b2c      0x30b C:\Users\zerog\AppData\Local\Temp\cc6IWZ33.debug.temp.o
 .debug_abbrev  0x00000e37      0x2be C:\Users\zerog\AppData\Local\Temp\ccSdODt8.debug.temp.o
 .debug_abbrev  0x000010f5      0x291 C:\Users\zerog\AppData\Local\Temp\ccgs7e0c.debug.temp.o
 .debug_abbrev  0x00001386      0x280 C:\Users\zerog\AppData\Local\Temp\ccEGqQwh.debug.temp.o
 .debug_abbrev  0x00001606      0x130 C:\Users\zerog\AppData\Local\Temp\ccOdrvfl.debug.temp.o
 .debug_abbrev  0x00001736      0x245 C:\Users\zerog\AppData\Local\Temp\ccYKraYo.debug.temp.o
 .debug_abbrev  0x0000197b      0x11d C:\Users\zerog\AppData\Local\Temp\cccunSus.debug.temp.o
 .debug_abbrev  0x00001a98      0x22d C:\Users\zerog\AppData\Local\Temp\ccEWeiyz.debug.temp.o
 .debug_abbrev  0x00001cc5      0x1c3 C:\Users\zerog\AppData\Local\Temp\ccWHOCKG.debug.temp.o
 .debug_abbrev  0x00001e88      0x293 C:\Users\zerog\AppData\Local\Temp\ccufxHJK.debug.temp.o
 .debug_abbrev  0x0000211b      0x138 C:\Users\zerog\AppData\Local\Temp\cc2MfMIO.debug.temp.o
 .debug_abbrev  0x00002253      0x179 C:\Users\zerog\AppData\Local\Temp\ccAokFMS.debug.temp.o
 .debug_abbrev  0x000023cc      0x27a C:\Users\zerog\AppData\Local\Temp\cc8ZoyQW.debug.temp.o
 .debug_abbrev  0x00002646      0x268 C:\Users\zerog\AppData\Local\Temp\cckqXmG0.debug.temp.o
 .debug_abbrev  0x000028ae      0x13b C:\Users\zerog\AppData\Local\Temp\ccwQvbw4.debug.temp.o
 .debug_abbrev  0x000029e9      0x2ec C:\Users\zerog\AppData\Local\Temp\ccyJJYkc.debug.temp.o
 .debug_abbrev  0x00002cd5      0x16c C:\Users\zerog\AppData\Local\Temp\ccGJFprf.debug.temp.o
 .debug_abbrev  0x00002e41      0x199 C:\Users\zerog\AppData\Local\Temp\ccOJBQxi.debug.temp.o
 .debug_abbrev  0x00002fda      0x293 C:\Users\zerog\AppData\Local\Temp\ccWXwNWo.debug.temp.o
 .debug_abbrev  0x0000326d      0x253 C:\Users\zerog\AppData\Local\Temp\cc0zZg9r.debug.temp.o
 .debug_abbrev  0x000034c0      0x229 C:\Users\zerog\AppData\Local\Temp\ccEmOf7u.debug.temp.o
 .debug_abbrev  0x000036e9      0x29b C:\Users\zerog\AppData\Local\Temp\cci9Ce5x.debug.temp.o
 .debug_abbrev  0x00003984      0x1b8 C:\Users\zerog\AppData\Local\Temp\ccivMN7A.debug.temp.o
 .debug_abbrev  0x00003b3c      0x188 C:\Users\zerog\AppData\Local\Temp\cciRVmaE.debug.temp.o
 .debug_abbrev  0x00003cc4      0x25f C:\Users\zerog\AppData\Local\Temp\ccYooIzH.debug.temp.o
 .debug_abbrev  0x00003f23      0x276 C:\Users\zerog\AppData\Local\Temp\ccUoz1sO.debug.temp.o
 .debug_abbrev  0x00004199      0x270 C:\Users\zerog\AppData\Local\Temp\ccKVajfV.debug.temp.o
 .debug_abbrev  0x00004409      0x200 C:\Users\zerog\AppData\Local\Temp\ccUAJlU1.debug.temp.o
 .debug_abbrev  0x00004609      0x21e C:\Users\zerog\AppData\Local\Temp\ccubp4g5.debug.temp.o
 .debug_abbrev  0x00004827      0x210 C:\Users\zerog\AppData\Local\Temp\ccOXoiP7.debug.temp.o
 .debug_abbrev  0x00004a37      0x23a C:\Users\zerog\AppData\Local\Temp\cc8Jowna.debug.temp.o
 .debug_abbrev  0x00004c71      0x250 C:\Users\zerog\AppData\Local\Temp\ccIWTj0c.debug.temp.o
 .debug_abbrev  0x00004ec1      0x25c C:\Users\zerog\AppData\Local\Temp\cci9o7Cf.debug.temp.o
 .debug_abbrev  0x0000511d      0x1a6 C:\Users\zerog\AppData\Local\Temp\ccEy4Gqk.debug.temp.o
 .debug_abbrev  0x000052c3      0x285 C:\Users\zerog\AppData\Local\Temp\ccM4C1By.debug.temp.o
 .debug_abbrev  0x00005548      0x1cc C:\Users\zerog\AppData\Local\Temp\ccSvdKiB.debug.temp.o
 .debug_abbrev  0x00005714      0x225 C:\Users\zerog\AppData\Local\Temp\ccYWNsZD.debug.temp.o
 .debug_abbrev  0x00005939      0x260 C:\Users\zerog\AppData\Local\Temp\cc4nobGG.debug.temp.o
 .debug_abbrev  0x00005b99      0x2c6 C:\Users\zerog\AppData\Local\Temp\ccIK33rJ.debug.temp.o
 .debug_abbrev  0x00005e5f      0x360 C:\Users\zerog\AppData\Local\Temp\ccm7IWdM.debug.temp.o
 .debug_abbrev  0x000061bf      0x1da C:\Users\zerog\AppData\Local\Temp\ccIs02TS.debug.temp.o

.debug_aranges  0x00000000      0x528
 .debug_aranges
                0x00000000       0x20 ./build/obj/crt0_v7m.o
 .debug_aranges
                0x00000020       0x20 ./build/obj/vectors.o
 .debug_aranges
                0x00000040       0x20 ./build/obj/chcoreasm.o
 .debug_aranges
                0x00000060      0x4c8 C:\Users\zerog\AppData\Local\Temp\APS_DIGITAL_CGG.elf.PLIgTd.ltrans0.ltrans.o

.debug_str      0x00000000     0x6024
 .debug_str     0x00000000       0x7c ./build/obj/crt0_v7m.o
 .debug_str     0x0000007c       0x43 ./build/obj/vectors.o
                                 0x7b (size before relaxing)
 .debug_str     0x000000bf       0x48 ./build/obj/chcoreasm.o
                                 0x80 (size before relaxing)
 .debug_str     0x00000107      0x2a1 C:\Users\zerog\AppData\Local\Temp\APS_DIGITAL_CGG.elf.PLIgTd.ltrans0.ltrans.o
                                0x2f4 (size before relaxing)
 .debug_str     0x000003a8      0x3b6 C:\Users\zerog\AppData\Local\Temp\ccOf8eYl.debug.temp.o
                                0x456 (size before relaxing)
 .debug_str     0x0000075e       0x46 C:\Users\zerog\AppData\Local\Temp\cc87Y6jq.debug.temp.o
                                0x1be (size before relaxing)
 .debug_str     0x000007a4      0x156 C:\Users\zerog\AppData\Local\Temp\ccurFesu.debug.temp.o
                                0x2f4 (size before relaxing)
 .debug_str     0x000008fa      0x72d C:\Users\zerog\AppData\Local\Temp\ccmnLjNC.debug.temp.o
                                0x9bc (size before relaxing)
 .debug_str     0x00001027      0x171 C:\Users\zerog\AppData\Local\Temp\ccyJdIeV.debug.temp.o
                                0x864 (size before relaxing)
 .debug_str     0x00001198      0x662 C:\Users\zerog\AppData\Local\Temp\cc6IWZ33.debug.temp.o
                                0xe8d (size before relaxing)
 .debug_str     0x000017fa      0x287 C:\Users\zerog\AppData\Local\Temp\ccSdODt8.debug.temp.o
                                0x9b0 (size before relaxing)
 .debug_str     0x00001a81      0x396 C:\Users\zerog\AppData\Local\Temp\ccgs7e0c.debug.temp.o
                                0xab3 (size before relaxing)
 .debug_str     0x00001e17      0x1de C:\Users\zerog\AppData\Local\Temp\ccEGqQwh.debug.temp.o
                                0xcaa (size before relaxing)
 .debug_str     0x00001ff5      0x158 C:\Users\zerog\AppData\Local\Temp\ccOdrvfl.debug.temp.o
                                0x331 (size before relaxing)
 .debug_str     0x0000214d      0x5a5 C:\Users\zerog\AppData\Local\Temp\ccYKraYo.debug.temp.o
                                0xf1a (size before relaxing)
 .debug_str     0x000026f2      0x31a C:\Users\zerog\AppData\Local\Temp\cccunSus.debug.temp.o
                                0x505 (size before relaxing)
 .debug_str     0x00002a0c      0x19c C:\Users\zerog\AppData\Local\Temp\ccEWeiyz.debug.temp.o
                                0xa76 (size before relaxing)
 .debug_str     0x00002ba8      0x146 C:\Users\zerog\AppData\Local\Temp\ccWHOCKG.debug.temp.o
                                0x4aa (size before relaxing)
 .debug_str     0x00002cee      0x174 C:\Users\zerog\AppData\Local\Temp\ccufxHJK.debug.temp.o
                                0xbfb (size before relaxing)
 .debug_str     0x00002e62       0xab C:\Users\zerog\AppData\Local\Temp\cc2MfMIO.debug.temp.o
                                0x48b (size before relaxing)
 .debug_str     0x00002f0d       0xb9 C:\Users\zerog\AppData\Local\Temp\ccAokFMS.debug.temp.o
                                0x4cc (size before relaxing)
 .debug_str     0x00002fc6      0x1a9 C:\Users\zerog\AppData\Local\Temp\cc8ZoyQW.debug.temp.o
                                0xb53 (size before relaxing)
 .debug_str     0x0000316f      0x266 C:\Users\zerog\AppData\Local\Temp\cckqXmG0.debug.temp.o
                                0x9e3 (size before relaxing)
 .debug_str     0x000033d5       0x9a C:\Users\zerog\AppData\Local\Temp\ccwQvbw4.debug.temp.o
                                0x421 (size before relaxing)
 .debug_str     0x0000346f      0x2d3 C:\Users\zerog\AppData\Local\Temp\ccyJJYkc.debug.temp.o
                                0x9fb (size before relaxing)
 .debug_str     0x00003742       0x53 C:\Users\zerog\AppData\Local\Temp\ccGJFprf.debug.temp.o
                                0x68a (size before relaxing)
 .debug_str     0x00003795      0x109 C:\Users\zerog\AppData\Local\Temp\ccOJBQxi.debug.temp.o
                                0x794 (size before relaxing)
 .debug_str     0x0000389e      0x247 C:\Users\zerog\AppData\Local\Temp\ccWXwNWo.debug.temp.o
                                0x92c (size before relaxing)
 .debug_str     0x00003ae5      0x1b7 C:\Users\zerog\AppData\Local\Temp\cc0zZg9r.debug.temp.o
                                0x8ba (size before relaxing)
 .debug_str     0x00003c9c      0x2b8 C:\Users\zerog\AppData\Local\Temp\ccEmOf7u.debug.temp.o
                                0x9ed (size before relaxing)
 .debug_str     0x00003f54      0x294 C:\Users\zerog\AppData\Local\Temp\cci9Ce5x.debug.temp.o
                                0x9de (size before relaxing)
 .debug_str     0x000041e8       0x87 C:\Users\zerog\AppData\Local\Temp\ccivMN7A.debug.temp.o
                                0x814 (size before relaxing)
 .debug_str     0x0000426f       0xc4 C:\Users\zerog\AppData\Local\Temp\cciRVmaE.debug.temp.o
                                0x74f (size before relaxing)
 .debug_str     0x00004333       0xaa C:\Users\zerog\AppData\Local\Temp\ccYooIzH.debug.temp.o
                                0x981 (size before relaxing)
 .debug_str     0x000043dd       0xc3 C:\Users\zerog\AppData\Local\Temp\ccUoz1sO.debug.temp.o
                                0x7a8 (size before relaxing)
 .debug_str     0x000044a0      0x1c2 C:\Users\zerog\AppData\Local\Temp\ccKVajfV.debug.temp.o
                                0x8c1 (size before relaxing)
 .debug_str     0x00004662       0xd1 C:\Users\zerog\AppData\Local\Temp\ccUAJlU1.debug.temp.o
                                0x7b7 (size before relaxing)
 .debug_str     0x00004733      0x121 C:\Users\zerog\AppData\Local\Temp\ccubp4g5.debug.temp.o
                                0x80f (size before relaxing)
 .debug_str     0x00004854       0xd7 C:\Users\zerog\AppData\Local\Temp\ccOXoiP7.debug.temp.o
                                0x772 (size before relaxing)
 .debug_str     0x0000492b       0xa6 C:\Users\zerog\AppData\Local\Temp\cc8Jowna.debug.temp.o
                                0x765 (size before relaxing)
 .debug_str     0x000049d1      0x145 C:\Users\zerog\AppData\Local\Temp\ccIWTj0c.debug.temp.o
                                0x833 (size before relaxing)
 .debug_str     0x00004b16      0x720 C:\Users\zerog\AppData\Local\Temp\cci9o7Cf.debug.temp.o
                                0xf17 (size before relaxing)
 .debug_str     0x00005236      0x16c C:\Users\zerog\AppData\Local\Temp\ccEy4Gqk.debug.temp.o
                                0x36c (size before relaxing)
 .debug_str     0x000053a2      0x181 C:\Users\zerog\AppData\Local\Temp\ccM4C1By.debug.temp.o
                                0x8db (size before relaxing)
 .debug_str     0x00005523       0x76 C:\Users\zerog\AppData\Local\Temp\ccSvdKiB.debug.temp.o
                                0x777 (size before relaxing)
 .debug_str     0x00005599      0x4f5 C:\Users\zerog\AppData\Local\Temp\ccYWNsZD.debug.temp.o
                                0x74a (size before relaxing)
 .debug_str     0x00005a8e      0x13a C:\Users\zerog\AppData\Local\Temp\cc4nobGG.debug.temp.o
                                0xd8f (size before relaxing)
 .debug_str     0x00005bc8       0xcc C:\Users\zerog\AppData\Local\Temp\ccIK33rJ.debug.temp.o
                                0xf1a (size before relaxing)
 .debug_str     0x00005c94      0x31c C:\Users\zerog\AppData\Local\Temp\ccm7IWdM.debug.temp.o
                                0xf1d (size before relaxing)
 .debug_str     0x00005fb0       0x74 C:\Users\zerog\AppData\Local\Temp\ccIs02TS.debug.temp.o
                                0x9d3 (size before relaxing)

.debug_loc      0x00000000    0x10fad
 .debug_loc     0x00000000    0x10fad C:\Users\zerog\AppData\Local\Temp\APS_DIGITAL_CGG.elf.PLIgTd.ltrans0.ltrans.o

.debug_ranges   0x00000000     0xc038
 .debug_ranges  0x00000000     0xc038 C:\Users\zerog\AppData\Local\Temp\APS_DIGITAL_CGG.elf.PLIgTd.ltrans0.ltrans.o

.debug_frame    0x00000000     0x2a9c
 .debug_frame   0x00000000     0x108c C:\Users\zerog\AppData\Local\Temp\APS_DIGITAL_CGG.elf.PLIgTd.ltrans0.ltrans.o
 .debug_frame   0x0000108c       0x2c c:/chibistudio/tools/gnu tools arm embedded/10.3 2021.07/bin/../lib/gcc/arm-none-eabi/10.3.1/../../../../arm-none-eabi/lib/thumb/v7e-m/nofp\libm.a(lib_a-s_round.o)
 .debug_frame   0x000010b8       0x20 c:/chibistudio/tools/gnu tools arm embedded/10.3 2021.07/bin/../lib/gcc/arm-none-eabi/10.3.1/../../../../arm-none-eabi/lib/thumb/v7e-m/nofp\libm.a(lib_a-w_exp2.o)
 .debug_frame   0x000010d8       0x38 c:/chibistudio/tools/gnu tools arm embedded/10.3 2021.07/bin/../lib/gcc/arm-none-eabi/10.3.1/../../../../arm-none-eabi/lib/thumb/v7e-m/nofp\libm.a(lib_a-w_log.o)
 .debug_frame   0x00001110       0x34 c:/chibistudio/tools/gnu tools arm embedded/10.3 2021.07/bin/../lib/gcc/arm-none-eabi/10.3.1/../../../../arm-none-eabi/lib/thumb/v7e-m/nofp\libm.a(lib_a-w_pow.o)
 .debug_frame   0x00001144       0x54 c:/chibistudio/tools/gnu tools arm embedded/10.3 2021.07/bin/../lib/gcc/arm-none-eabi/10.3.1/../../../../arm-none-eabi/lib/thumb/v7e-m/nofp\libm.a(lib_a-e_log.o)
 .debug_frame   0x00001198       0x7c c:/chibistudio/tools/gnu tools arm embedded/10.3 2021.07/bin/../lib/gcc/arm-none-eabi/10.3.1/../../../../arm-none-eabi/lib/thumb/v7e-m/nofp\libm.a(lib_a-e_pow.o)
 .debug_frame   0x00001214       0x34 c:/chibistudio/tools/gnu tools arm embedded/10.3 2021.07/bin/../lib/gcc/arm-none-eabi/10.3.1/../../../../arm-none-eabi/lib/thumb/v7e-m/nofp\libm.a(lib_a-e_sqrt.o)
 .debug_frame   0x00001248      0x11c c:/chibistudio/tools/gnu tools arm embedded/10.3 2021.07/bin/../lib/gcc/arm-none-eabi/10.3.1/../../../../arm-none-eabi/lib/thumb/v7e-m/nofp\libm.a(lib_a-math_err.o)
 .debug_frame   0x00001364       0x20 c:/chibistudio/tools/gnu tools arm embedded/10.3 2021.07/bin/../lib/gcc/arm-none-eabi/10.3.1/../../../../arm-none-eabi/lib/thumb/v7e-m/nofp\libm.a(lib_a-s_fabs.o)
 .debug_frame   0x00001384       0x20 c:/chibistudio/tools/gnu tools arm embedded/10.3 2021.07/bin/../lib/gcc/arm-none-eabi/10.3.1/../../../../arm-none-eabi/lib/thumb/v7e-m/nofp\libm.a(lib_a-s_finite.o)
 .debug_frame   0x000013a4       0x20 c:/chibistudio/tools/gnu tools arm embedded/10.3 2021.07/bin/../lib/gcc/arm-none-eabi/10.3.1/../../../../arm-none-eabi/lib/thumb/v7e-m/nofp\libm.a(lib_a-s_nan.o)
 .debug_frame   0x000013c4       0x2c c:/chibistudio/tools/gnu tools arm embedded/10.3 2021.07/bin/../lib/gcc/arm-none-eabi/10.3.1/../../../../arm-none-eabi/lib/thumb/v7e-m/nofp\libm.a(lib_a-s_scalbn.o)
 .debug_frame   0x000013f0       0xac c:/chibistudio/tools/gnu tools arm embedded/10.3 2021.07/bin/../lib/gcc/arm-none-eabi/10.3.1/thumb/v7e-m/nofp\libgcc.a(_arm_addsubdf3.o)
 .debug_frame   0x0000149c       0x50 c:/chibistudio/tools/gnu tools arm embedded/10.3 2021.07/bin/../lib/gcc/arm-none-eabi/10.3.1/thumb/v7e-m/nofp\libgcc.a(_arm_muldivdf3.o)
 .debug_frame   0x000014ec       0xc4 c:/chibistudio/tools/gnu tools arm embedded/10.3 2021.07/bin/../lib/gcc/arm-none-eabi/10.3.1/thumb/v7e-m/nofp\libgcc.a(_arm_cmpdf2.o)
 .debug_frame   0x000015b0       0x20 c:/chibistudio/tools/gnu tools arm embedded/10.3 2021.07/bin/../lib/gcc/arm-none-eabi/10.3.1/thumb/v7e-m/nofp\libgcc.a(_arm_unorddf2.o)
 .debug_frame   0x000015d0       0x24 c:/chibistudio/tools/gnu tools arm embedded/10.3 2021.07/bin/../lib/gcc/arm-none-eabi/10.3.1/thumb/v7e-m/nofp\libgcc.a(_arm_mulsf3.o)
 .debug_frame   0x000015f4       0x24 c:/chibistudio/tools/gnu tools arm embedded/10.3 2021.07/bin/../lib/gcc/arm-none-eabi/10.3.1/thumb/v7e-m/nofp\libgcc.a(_arm_fixdfsi.o)
 .debug_frame   0x00001618       0x24 c:/chibistudio/tools/gnu tools arm embedded/10.3 2021.07/bin/../lib/gcc/arm-none-eabi/10.3.1/thumb/v7e-m/nofp\libgcc.a(_arm_fixsfsi.o)
 .debug_frame   0x0000163c       0x24 c:/chibistudio/tools/gnu tools arm embedded/10.3 2021.07/bin/../lib/gcc/arm-none-eabi/10.3.1/thumb/v7e-m/nofp\libgcc.a(_arm_fixunssfsi.o)
 .debug_frame   0x00001660       0x20 c:/chibistudio/tools/gnu tools arm embedded/10.3 2021.07/bin/../lib/gcc/arm-none-eabi/10.3.1/../../../../arm-none-eabi/lib/thumb/v7e-m/nofp\libg.a(lib_a-errno.o)
 .debug_frame   0x00001680       0xe8 c:/chibistudio/tools/gnu tools arm embedded/10.3 2021.07/bin/../lib/gcc/arm-none-eabi/10.3.1/../../../../arm-none-eabi/lib/thumb/v7e-m/nofp\libg.a(lib_a-strtod.o)
 .debug_frame   0x00001768       0x6c c:/chibistudio/tools/gnu tools arm embedded/10.3 2021.07/bin/../lib/gcc/arm-none-eabi/10.3.1/../../../../arm-none-eabi/lib/thumb/v7e-m/nofp\libg.a(lib_a-gdtoa-gethex.o)
 .debug_frame   0x000017d4       0x6c c:/chibistudio/tools/gnu tools arm embedded/10.3 2021.07/bin/../lib/gcc/arm-none-eabi/10.3.1/../../../../arm-none-eabi/lib/thumb/v7e-m/nofp\libg.a(lib_a-gdtoa-hexnan.o)
 .debug_frame   0x00001840       0x20 c:/chibistudio/tools/gnu tools arm embedded/10.3 2021.07/bin/../lib/gcc/arm-none-eabi/10.3.1/../../../../arm-none-eabi/lib/thumb/v7e-m/nofp\libg.a(lib_a-lnumeric.o)
 .debug_frame   0x00001860       0x68 c:/chibistudio/tools/gnu tools arm embedded/10.3 2021.07/bin/../lib/gcc/arm-none-eabi/10.3.1/../../../../arm-none-eabi/lib/thumb/v7e-m/nofp\libg.a(lib_a-locale.o)
 .debug_frame   0x000018c8       0x4c c:/chibistudio/tools/gnu tools arm embedded/10.3 2021.07/bin/../lib/gcc/arm-none-eabi/10.3.1/../../../../arm-none-eabi/lib/thumb/v7e-m/nofp\libg.a(lib_a-mbtowc_r.o)
 .debug_frame   0x00001914      0x264 c:/chibistudio/tools/gnu tools arm embedded/10.3 2021.07/bin/../lib/gcc/arm-none-eabi/10.3.1/../../../../arm-none-eabi/lib/thumb/v7e-m/nofp\libg.a(lib_a-mprec.o)
 .debug_frame   0x00001b78       0x20 c:/chibistudio/tools/gnu tools arm embedded/10.3 2021.07/bin/../lib/gcc/arm-none-eabi/10.3.1/../../../../arm-none-eabi/lib/thumb/v7e-m/nofp\libg.a(lib_a-sf_nan.o)
 .debug_frame   0x00001b98       0x68 c:/chibistudio/tools/gnu tools arm embedded/10.3 2021.07/bin/../lib/gcc/arm-none-eabi/10.3.1/../../../../arm-none-eabi/lib/thumb/v7e-m/nofp\libg.a(lib_a-strcmp.o)
 .debug_frame   0x00001c00       0x38 c:/chibistudio/tools/gnu tools arm embedded/10.3 2021.07/bin/../lib/gcc/arm-none-eabi/10.3.1/../../../../arm-none-eabi/lib/thumb/v7e-m/nofp\libg.a(lib_a-strncmp.o)
 .debug_frame   0x00001c38       0x3c c:/chibistudio/tools/gnu tools arm embedded/10.3 2021.07/bin/../lib/gcc/arm-none-eabi/10.3.1/../../../../arm-none-eabi/lib/thumb/v7e-m/nofp\libg.a(lib_a-wctomb_r.o)
 .debug_frame   0x00001c74       0x40 c:/chibistudio/tools/gnu tools arm embedded/10.3 2021.07/bin/../lib/gcc/arm-none-eabi/10.3.1/../../../../arm-none-eabi/lib/thumb/v7e-m/nofp\libg.a(lib_a-assert.o)
 .debug_frame   0x00001cb4       0x2c c:/chibistudio/tools/gnu tools arm embedded/10.3 2021.07/bin/../lib/gcc/arm-none-eabi/10.3.1/../../../../arm-none-eabi/lib/thumb/v7e-m/nofp\libg.a(lib_a-callocr.o)
 .debug_frame   0x00001ce0       0x70 c:/chibistudio/tools/gnu tools arm embedded/10.3 2021.07/bin/../lib/gcc/arm-none-eabi/10.3.1/../../../../arm-none-eabi/lib/thumb/v7e-m/nofp\libg.a(lib_a-fiprintf.o)
 .debug_frame   0x00001d50       0x4c c:/chibistudio/tools/gnu tools arm embedded/10.3 2021.07/bin/../lib/gcc/arm-none-eabi/10.3.1/../../../../arm-none-eabi/lib/thumb/v7e-m/nofp\libg.a(lib_a-mallocr.o)
 .debug_frame   0x00001d9c       0x2c c:/chibistudio/tools/gnu tools arm embedded/10.3 2021.07/bin/../lib/gcc/arm-none-eabi/10.3.1/../../../../arm-none-eabi/lib/thumb/v7e-m/nofp\libg.a(lib_a-memset.o)
 .debug_frame   0x00001dc8       0x30 c:/chibistudio/tools/gnu tools arm embedded/10.3 2021.07/bin/../lib/gcc/arm-none-eabi/10.3.1/../../../../arm-none-eabi/lib/thumb/v7e-m/nofp\libg.a(lib_a-mlock.o)
 .debug_frame   0x00001df8       0xdc c:/chibistudio/tools/gnu tools arm embedded/10.3 2021.07/bin/../lib/gcc/arm-none-eabi/10.3.1/../../../../arm-none-eabi/lib/thumb/v7e-m/nofp\libg.a(lib_a-vfiprintf.o)
 .debug_frame   0x00001ed4       0x2c c:/chibistudio/tools/gnu tools arm embedded/10.3 2021.07/bin/../lib/gcc/arm-none-eabi/10.3.1/../../../../arm-none-eabi/lib/thumb/v7e-m/nofp\libg.a(lib_a-wsetup.o)
 .debug_frame   0x00001f00       0x28 c:/chibistudio/tools/gnu tools arm embedded/10.3 2021.07/bin/../lib/gcc/arm-none-eabi/10.3.1/../../../../arm-none-eabi/lib/thumb/v7e-m/nofp\libg.a(lib_a-abort.o)
 .debug_frame   0x00001f28       0x70 c:/chibistudio/tools/gnu tools arm embedded/10.3 2021.07/bin/../lib/gcc/arm-none-eabi/10.3.1/../../../../arm-none-eabi/lib/thumb/v7e-m/nofp\libg.a(lib_a-fflush.o)
 .debug_frame   0x00001f98      0x154 c:/chibistudio/tools/gnu tools arm embedded/10.3 2021.07/bin/../lib/gcc/arm-none-eabi/10.3.1/../../../../arm-none-eabi/lib/thumb/v7e-m/nofp\libg.a(lib_a-findfp.o)
 .debug_frame   0x000020ec       0x88 c:/chibistudio/tools/gnu tools arm embedded/10.3 2021.07/bin/../lib/gcc/arm-none-eabi/10.3.1/../../../../arm-none-eabi/lib/thumb/v7e-m/nofp\libg.a(lib_a-fputwc.o)
 .debug_frame   0x00002174       0x8c c:/chibistudio/tools/gnu tools arm embedded/10.3 2021.07/bin/../lib/gcc/arm-none-eabi/10.3.1/../../../../arm-none-eabi/lib/thumb/v7e-m/nofp\libg.a(lib_a-freer.o)
 .debug_frame   0x00002200       0x64 c:/chibistudio/tools/gnu tools arm embedded/10.3 2021.07/bin/../lib/gcc/arm-none-eabi/10.3.1/../../../../arm-none-eabi/lib/thumb/v7e-m/nofp\libg.a(lib_a-fvwrite.o)
 .debug_frame   0x00002264       0x54 c:/chibistudio/tools/gnu tools arm embedded/10.3 2021.07/bin/../lib/gcc/arm-none-eabi/10.3.1/../../../../arm-none-eabi/lib/thumb/v7e-m/nofp\libg.a(lib_a-fwalk.o)
 .debug_frame   0x000022b8       0x40 c:/chibistudio/tools/gnu tools arm embedded/10.3 2021.07/bin/../lib/gcc/arm-none-eabi/10.3.1/../../../../arm-none-eabi/lib/thumb/v7e-m/nofp\libg.a(lib_a-localeconv.o)
 .debug_frame   0x000022f8       0xb0 c:/chibistudio/tools/gnu tools arm embedded/10.3 2021.07/bin/../lib/gcc/arm-none-eabi/10.3.1/../../../../arm-none-eabi/lib/thumb/v7e-m/nofp\libg.a(lib_a-lock.o)
 .debug_frame   0x000023a8       0x70 c:/chibistudio/tools/gnu tools arm embedded/10.3 2021.07/bin/../lib/gcc/arm-none-eabi/10.3.1/../../../../arm-none-eabi/lib/thumb/v7e-m/nofp\libg.a(lib_a-makebuf.o)
 .debug_frame   0x00002418       0x40 c:/chibistudio/tools/gnu tools arm embedded/10.3 2021.07/bin/../lib/gcc/arm-none-eabi/10.3.1/../../../../arm-none-eabi/lib/thumb/v7e-m/nofp\libg.a(lib_a-memmove.o)
 .debug_frame   0x00002458       0x48 c:/chibistudio/tools/gnu tools arm embedded/10.3 2021.07/bin/../lib/gcc/arm-none-eabi/10.3.1/../../../../arm-none-eabi/lib/thumb/v7e-m/nofp\libg.a(lib_a-reallocr.o)
 .debug_frame   0x000024a0      0x114 c:/chibistudio/tools/gnu tools arm embedded/10.3 2021.07/bin/../lib/gcc/arm-none-eabi/10.3.1/../../../../arm-none-eabi/lib/thumb/v7e-m/nofp\libg.a(lib_a-signal.o)
 .debug_frame   0x000025b4       0x3c c:/chibistudio/tools/gnu tools arm embedded/10.3 2021.07/bin/../lib/gcc/arm-none-eabi/10.3.1/../../../../arm-none-eabi/lib/thumb/v7e-m/nofp\libg.a(lib_a-signalr.o)
 .debug_frame   0x000025f0       0x8c c:/chibistudio/tools/gnu tools arm embedded/10.3 2021.07/bin/../lib/gcc/arm-none-eabi/10.3.1/../../../../arm-none-eabi/lib/thumb/v7e-m/nofp\libg.a(lib_a-stdio.o)
 .debug_frame   0x0000267c       0x2c c:/chibistudio/tools/gnu tools arm embedded/10.3 2021.07/bin/../lib/gcc/arm-none-eabi/10.3.1/../../../../arm-none-eabi/lib/thumb/v7e-m/nofp\libg.a(lib_a-strncpy.o)
 .debug_frame   0x000026a8       0x4c c:/chibistudio/tools/gnu tools arm embedded/10.3 2021.07/bin/../lib/gcc/arm-none-eabi/10.3.1/../../../../arm-none-eabi/lib/thumb/v7e-m/nofp\libg.a(lib_a-wbuf.o)
 .debug_frame   0x000026f4       0x60 c:/chibistudio/tools/gnu tools arm embedded/10.3 2021.07/bin/../lib/gcc/arm-none-eabi/10.3.1/../../../../arm-none-eabi/lib/thumb/v7e-m/nofp\libg.a(lib_a-wcrtomb.o)
 .debug_frame   0x00002754       0x3c c:/chibistudio/tools/gnu tools arm embedded/10.3 2021.07/bin/../lib/gcc/arm-none-eabi/10.3.1/../../../../arm-none-eabi/lib/thumb/v7e-m/nofp\libg.a(lib_a-fclose.o)
 .debug_frame   0x00002790       0x64 c:/chibistudio/tools/gnu tools arm embedded/10.3 2021.07/bin/../lib/gcc/arm-none-eabi/10.3.1/../../../../arm-none-eabi/lib/thumb/v7e-m/nofp\libg.a(lib_a-reent.o)
 .debug_frame   0x000027f4       0x28 c:/chibistudio/tools/gnu tools arm embedded/10.3 2021.07/bin/../lib/gcc/arm-none-eabi/10.3.1/../../../../arm-none-eabi/lib/thumb/v7e-m/nofp\libg.a(lib_a-strcasecmp.o)
 .debug_frame   0x0000281c       0x34 c:/chibistudio/tools/gnu tools arm embedded/10.3 2021.07/bin/../lib/gcc/arm-none-eabi/10.3.1/../../../../arm-none-eabi/lib/thumb/v7e-m/nofp\libg.a(lib_a-strchr.o)
 .debug_frame   0x00002850       0x2c c:/chibistudio/tools/gnu tools arm embedded/10.3 2021.07/bin/../lib/gcc/arm-none-eabi/10.3.1/../../../../arm-none-eabi/lib/thumb/v7e-m/nofp\libg.a(lib_a-strpbrk.o)
 .debug_frame   0x0000287c       0x28 c:/chibistudio/tools/gnu tools arm embedded/10.3 2021.07/bin/../lib/gcc/arm-none-eabi/10.3.1/../../../../arm-none-eabi/lib/thumb/v7e-m/nofp\libg.a(lib_a-strspn.o)
 .debug_frame   0x000028a4       0x24 c:/chibistudio/tools/gnu tools arm embedded/10.3 2021.07/bin/../lib/gcc/arm-none-eabi/10.3.1/thumb/v7e-m/nofp\libgcc.a(_arm_fixunsdfsi.o)
 .debug_frame   0x000028c8       0x24 c:/chibistudio/tools/gnu tools arm embedded/10.3 2021.07/bin/../lib/gcc/arm-none-eabi/10.3.1/thumb/v7e-m/nofp\libgcc.a(_arm_truncdfsf2.o)
 .debug_frame   0x000028ec       0xc8 c:/chibistudio/tools/gnu tools arm embedded/10.3 2021.07/bin/../lib/gcc/arm-none-eabi/10.3.1/thumb/v7e-m/nofp\libgcc.a(_arm_cmpsf2.o)
 .debug_frame   0x000029b4       0x24 c:/chibistudio/tools/gnu tools arm embedded/10.3 2021.07/bin/../lib/gcc/arm-none-eabi/10.3.1/thumb/v7e-m/nofp\libgcc.a(_arm_unordsf2.o)
 .debug_frame   0x000029d8       0x2c c:/chibistudio/tools/gnu tools arm embedded/10.3 2021.07/bin/../lib/gcc/arm-none-eabi/10.3.1/thumb/v7e-m/nofp\libgcc.a(_aeabi_uldivmod.o)
 .debug_frame   0x00002a04       0x38 c:/chibistudio/tools/gnu tools arm embedded/10.3 2021.07/bin/../lib/gcc/arm-none-eabi/10.3.1/thumb/v7e-m/nofp\libgcc.a(_fixdfdi.o)
 .debug_frame   0x00002a3c       0x2c c:/chibistudio/tools/gnu tools arm embedded/10.3 2021.07/bin/../lib/gcc/arm-none-eabi/10.3.1/thumb/v7e-m/nofp\libgcc.a(_fixunsdfdi.o)
 .debug_frame   0x00002a68       0x34 c:/chibistudio/tools/gnu tools arm embedded/10.3 2021.07/bin/../lib/gcc/arm-none-eabi/10.3.1/thumb/v7e-m/nofp\libgcc.a(_udivmoddi4.o)

Cross Reference Table

Symbol                                            File
AD8460                                            ./build/obj/digital_driver.o (symbol from plugin)
AD8460.c.0b7d08c6                                 C:\Users\zerog\AppData\Local\Temp\ccIs02TS.debug.temp.o
                                                  C:\Users\zerog\AppData\Local\Temp\APS_DIGITAL_CGG.elf.PLIgTd.ltrans0.ltrans.o
AD8460_SPIReadRegister                            ./build/obj/AD8460.o (symbol from plugin)
AD8460_SPIWriteRegister                           ./build/obj/AD8460.o (symbol from plugin)
AD8460_init                                       ./build/obj/AD8460.o (symbol from plugin)
                                                  ./build/obj/digital_driver.o (symbol from plugin)
AD8460_start                                      ./build/obj/AD8460.o (symbol from plugin)
                                                  ./build/obj/digital_driver.o (symbol from plugin)
AD8460_stop                                       ./build/obj/AD8460.o (symbol from plugin)
                                                  ./build/obj/digital_driver.o (symbol from plugin)
BusFault_Handler                                  ./build/obj/vectors.o
DD_init                                           ./build/obj/digital_driver.o (symbol from plugin)
                                                  ./build/obj/main.o (symbol from plugin)
DD_test_running_flag                              ./build/obj/digital_driver.o (symbol from plugin)
DD_test_thread_p                                  ./build/obj/digital_driver.o (symbol from plugin)
DD_timer_DMA_start                                ./build/obj/digital_driver.o (symbol from plugin)
DD_timer_DMA_stop                                 ./build/obj/digital_driver.o (symbol from plugin)
DebugMon_Handler                                  ./build/obj/vectors.o
GPTD4                                             ./build/obj/hal_gpt_lld.o (symbol from plugin)
                                                  ./build/obj/stm32_isr.o (symbol from plugin)
HardFault_Handler                                 ./build/obj/vectors.o
MemManage_Handler                                 ./build/obj/vectors.o
NMI_Handler                                       ./build/obj/vectors.o
PendSV_Handler                                    ./build/obj/chcoreasm.o
                                                  ./build/obj/vectors.o
Reset_Handler                                     ./build/obj/vectors.o
SDU1                                              ./build/obj/usbcfg.o (symbol from plugin)
                                                  ./build/obj/main.o (symbol from plugin)
SIOD2                                             ./build/obj/hal_sio_lld.o (symbol from plugin)
                                                  ./build/obj/main.o (symbol from plugin)
                                                  ./build/obj/stm32_isr.o (symbol from plugin)
SPID3                                             ./build/obj/hal_spi_v2_lld.o (symbol from plugin)
                                                  ./build/obj/digital_driver.o (symbol from plugin)
SVC_Handler                                       ./build/obj/chcoreasm.o
                                                  ./build/obj/vectors.o
SecureFault_Handler                               ./build/obj/vectors.o
SysTick_Handler                                   ./build/obj/vectors.o
SystemCoreClock                                   ./build/obj/hal_lld.o (symbol from plugin)
USBD1                                             ./build/obj/hal_usb_lld.o (symbol from plugin)
                                                  ./build/obj/usbcfg.o (symbol from plugin)
UsageFault_Handler                                ./build/obj/vectors.o
Vector100                                         ./build/obj/vectors.o
Vector104                                         ./build/obj/vectors.o
Vector108                                         ./build/obj/vectors.o
Vector10C                                         ./build/obj/vectors.o
Vector110                                         ./build/obj/vectors.o
Vector114                                         ./build/obj/vectors.o
Vector118                                         ./build/obj/vectors.o
Vector11C                                         ./build/obj/vectors.o
Vector120                                         C:\Users\zerog\AppData\Local\Temp\APS_DIGITAL_CGG.elf.PLIgTd.ltrans0.ltrans.o
                                                  ./build/obj/stm32_dma.o (symbol from plugin)
                                                  ./build/obj/vectors.o
Vector124                                         C:\Users\zerog\AppData\Local\Temp\APS_DIGITAL_CGG.elf.PLIgTd.ltrans0.ltrans.o
                                                  ./build/obj/stm32_dma.o (symbol from plugin)
                                                  ./build/obj/vectors.o
Vector128                                         C:\Users\zerog\AppData\Local\Temp\APS_DIGITAL_CGG.elf.PLIgTd.ltrans0.ltrans.o
                                                  ./build/obj/stm32_dma.o (symbol from plugin)
                                                  ./build/obj/vectors.o
Vector12C                                         C:\Users\zerog\AppData\Local\Temp\APS_DIGITAL_CGG.elf.PLIgTd.ltrans0.ltrans.o
                                                  ./build/obj/stm32_dma.o (symbol from plugin)
                                                  ./build/obj/vectors.o
Vector130                                         C:\Users\zerog\AppData\Local\Temp\APS_DIGITAL_CGG.elf.PLIgTd.ltrans0.ltrans.o
                                                  ./build/obj/stm32_dma.o (symbol from plugin)
                                                  ./build/obj/vectors.o
Vector134                                         ./build/obj/vectors.o
Vector138                                         ./build/obj/vectors.o
Vector13C                                         ./build/obj/vectors.o
Vector140                                         ./build/obj/vectors.o
Vector144                                         ./build/obj/vectors.o
Vector148                                         ./build/obj/vectors.o
Vector14C                                         ./build/obj/vectors.o
Vector150                                         ./build/obj/vectors.o
Vector154                                         ./build/obj/vectors.o
Vector158                                         ./build/obj/vectors.o
Vector15C                                         ./build/obj/vectors.o
Vector160                                         ./build/obj/vectors.o
Vector164                                         ./build/obj/vectors.o
Vector168                                         ./build/obj/vectors.o
Vector16C                                         ./build/obj/vectors.o
Vector170                                         ./build/obj/vectors.o
Vector174                                         ./build/obj/vectors.o
Vector178                                         ./build/obj/vectors.o
Vector17C                                         ./build/obj/vectors.o
Vector180                                         ./build/obj/vectors.o
Vector184                                         ./build/obj/vectors.o
Vector188                                         ./build/obj/vectors.o
Vector18C                                         ./build/obj/vectors.o
Vector190                                         ./build/obj/vectors.o
Vector194                                         ./build/obj/vectors.o
Vector198                                         ./build/obj/vectors.o
Vector19C                                         ./build/obj/vectors.o
Vector1A0                                         ./build/obj/vectors.o
Vector1A4                                         ./build/obj/vectors.o
Vector1A8                                         ./build/obj/vectors.o
Vector1AC                                         ./build/obj/vectors.o
Vector1B0                                         ./build/obj/vectors.o
Vector1B4                                         ./build/obj/vectors.o
Vector1B8                                         ./build/obj/vectors.o
Vector1BC                                         ./build/obj/vectors.o
Vector1C0                                         C:\Users\zerog\AppData\Local\Temp\APS_DIGITAL_CGG.elf.PLIgTd.ltrans0.ltrans.o
                                                  ./build/obj/stm32_dma.o (symbol from plugin)
                                                  ./build/obj/vectors.o
Vector1C4                                         C:\Users\zerog\AppData\Local\Temp\APS_DIGITAL_CGG.elf.PLIgTd.ltrans0.ltrans.o
                                                  ./build/obj/stm32_dma.o (symbol from plugin)
                                                  ./build/obj/vectors.o
Vector1C8                                         C:\Users\zerog\AppData\Local\Temp\APS_DIGITAL_CGG.elf.PLIgTd.ltrans0.ltrans.o
                                                  ./build/obj/stm32_dma.o (symbol from plugin)
                                                  ./build/obj/vectors.o
Vector1CC                                         C:\Users\zerog\AppData\Local\Temp\APS_DIGITAL_CGG.elf.PLIgTd.ltrans0.ltrans.o
                                                  ./build/obj/stm32_dma.o (symbol from plugin)
                                                  ./build/obj/vectors.o
Vector1D0                                         ./build/obj/vectors.o
Vector1D4                                         ./build/obj/vectors.o
Vector1D8                                         ./build/obj/vectors.o
Vector1DC                                         ./build/obj/vectors.o
Vector20                                          ./build/obj/vectors.o
Vector24                                          ./build/obj/vectors.o
Vector28                                          ./build/obj/vectors.o
Vector34                                          ./build/obj/vectors.o
Vector40                                          ./build/obj/vectors.o
Vector44                                          ./build/obj/vectors.o
Vector48                                          ./build/obj/vectors.o
Vector4C                                          ./build/obj/vectors.o
Vector50                                          ./build/obj/vectors.o
Vector54                                          ./build/obj/vectors.o
Vector58                                          C:\Users\zerog\AppData\Local\Temp\APS_DIGITAL_CGG.elf.PLIgTd.ltrans0.ltrans.o
                                                  ./build/obj/stm32_isr.o (symbol from plugin)
                                                  ./build/obj/vectors.o
Vector5C                                          C:\Users\zerog\AppData\Local\Temp\APS_DIGITAL_CGG.elf.PLIgTd.ltrans0.ltrans.o
                                                  ./build/obj/stm32_isr.o (symbol from plugin)
                                                  ./build/obj/vectors.o
Vector60                                          C:\Users\zerog\AppData\Local\Temp\APS_DIGITAL_CGG.elf.PLIgTd.ltrans0.ltrans.o
                                                  ./build/obj/stm32_isr.o (symbol from plugin)
                                                  ./build/obj/vectors.o
Vector64                                          C:\Users\zerog\AppData\Local\Temp\APS_DIGITAL_CGG.elf.PLIgTd.ltrans0.ltrans.o
                                                  ./build/obj/stm32_isr.o (symbol from plugin)
                                                  ./build/obj/vectors.o
Vector68                                          C:\Users\zerog\AppData\Local\Temp\APS_DIGITAL_CGG.elf.PLIgTd.ltrans0.ltrans.o
                                                  ./build/obj/stm32_isr.o (symbol from plugin)
                                                  ./build/obj/vectors.o
Vector6C                                          C:\Users\zerog\AppData\Local\Temp\APS_DIGITAL_CGG.elf.PLIgTd.ltrans0.ltrans.o
                                                  ./build/obj/stm32_dma.o (symbol from plugin)
                                                  ./build/obj/vectors.o
Vector70                                          C:\Users\zerog\AppData\Local\Temp\APS_DIGITAL_CGG.elf.PLIgTd.ltrans0.ltrans.o
                                                  ./build/obj/stm32_dma.o (symbol from plugin)
                                                  ./build/obj/vectors.o
Vector74                                          C:\Users\zerog\AppData\Local\Temp\APS_DIGITAL_CGG.elf.PLIgTd.ltrans0.ltrans.o
                                                  ./build/obj/stm32_dma.o (symbol from plugin)
                                                  ./build/obj/vectors.o
Vector78                                          C:\Users\zerog\AppData\Local\Temp\APS_DIGITAL_CGG.elf.PLIgTd.ltrans0.ltrans.o
                                                  ./build/obj/stm32_dma.o (symbol from plugin)
                                                  ./build/obj/vectors.o
Vector7C                                          C:\Users\zerog\AppData\Local\Temp\APS_DIGITAL_CGG.elf.PLIgTd.ltrans0.ltrans.o
                                                  ./build/obj/stm32_dma.o (symbol from plugin)
                                                  ./build/obj/vectors.o
Vector80                                          C:\Users\zerog\AppData\Local\Temp\APS_DIGITAL_CGG.elf.PLIgTd.ltrans0.ltrans.o
                                                  ./build/obj/stm32_dma.o (symbol from plugin)
                                                  ./build/obj/vectors.o
Vector84                                          C:\Users\zerog\AppData\Local\Temp\APS_DIGITAL_CGG.elf.PLIgTd.ltrans0.ltrans.o
                                                  ./build/obj/stm32_dma.o (symbol from plugin)
                                                  ./build/obj/vectors.o
Vector88                                          ./build/obj/vectors.o
Vector8C                                          ./build/obj/vectors.o
Vector90                                          C:\Users\zerog\AppData\Local\Temp\APS_DIGITAL_CGG.elf.PLIgTd.ltrans0.ltrans.o
                                                  ./build/obj/hal_usb_lld.o (symbol from plugin)
                                                  ./build/obj/vectors.o
Vector94                                          ./build/obj/vectors.o
Vector98                                          ./build/obj/vectors.o
Vector9C                                          C:\Users\zerog\AppData\Local\Temp\APS_DIGITAL_CGG.elf.PLIgTd.ltrans0.ltrans.o
                                                  ./build/obj/stm32_isr.o (symbol from plugin)
                                                  ./build/obj/vectors.o
VectorA0                                          ./build/obj/vectors.o
VectorA4                                          ./build/obj/vectors.o
VectorA8                                          ./build/obj/vectors.o
VectorAC                                          ./build/obj/vectors.o
VectorB0                                          C:\Users\zerog\AppData\Local\Temp\APS_DIGITAL_CGG.elf.PLIgTd.ltrans0.ltrans.o
                                                  ./build/obj/stm32_isr.o (symbol from plugin)
                                                  ./build/obj/vectors.o
VectorB4                                          ./build/obj/vectors.o
VectorB8                                          C:\Users\zerog\AppData\Local\Temp\APS_DIGITAL_CGG.elf.PLIgTd.ltrans0.ltrans.o
                                                  ./build/obj/stm32_isr.o (symbol from plugin)
                                                  ./build/obj/vectors.o
VectorBC                                          ./build/obj/vectors.o
VectorC0                                          ./build/obj/vectors.o
VectorC4                                          ./build/obj/vectors.o
VectorC8                                          ./build/obj/vectors.o
VectorCC                                          ./build/obj/vectors.o
VectorD0                                          ./build/obj/vectors.o
VectorD4                                          ./build/obj/vectors.o
VectorD8                                          C:\Users\zerog\AppData\Local\Temp\APS_DIGITAL_CGG.elf.PLIgTd.ltrans0.ltrans.o
                                                  ./build/obj/stm32_isr.o (symbol from plugin)
                                                  ./build/obj/vectors.o
VectorDC                                          ./build/obj/vectors.o
VectorE0                                          C:\Users\zerog\AppData\Local\Temp\APS_DIGITAL_CGG.elf.PLIgTd.ltrans0.ltrans.o
                                                  ./build/obj/stm32_isr.o (symbol from plugin)
                                                  ./build/obj/vectors.o
VectorE4                                          ./build/obj/vectors.o
VectorE8                                          ./build/obj/vectors.o
VectorEC                                          ./build/obj/vectors.o
VectorF0                                          ./build/obj/vectors.o
VectorF4                                          ./build/obj/vectors.o
VectorF8                                          ./build/obj/vectors.o
VectorFC                                          ./build/obj/vectors.o
_Balloc                                           c:/chibistudio/tools/gnu tools arm embedded/10.3 2021.07/bin/../lib/gcc/arm-none-eabi/10.3.1/../../../../arm-none-eabi/lib/thumb/v7e-m/nofp\libg.a(lib_a-mprec.o)
                                                  c:/chibistudio/tools/gnu tools arm embedded/10.3 2021.07/bin/../lib/gcc/arm-none-eabi/10.3.1/../../../../arm-none-eabi/lib/thumb/v7e-m/nofp\libg.a(lib_a-gdtoa-gethex.o)
                                                  c:/chibistudio/tools/gnu tools arm embedded/10.3 2021.07/bin/../lib/gcc/arm-none-eabi/10.3.1/../../../../arm-none-eabi/lib/thumb/v7e-m/nofp\libg.a(lib_a-strtod.o)
_Bfree                                            c:/chibistudio/tools/gnu tools arm embedded/10.3 2021.07/bin/../lib/gcc/arm-none-eabi/10.3.1/../../../../arm-none-eabi/lib/thumb/v7e-m/nofp\libg.a(lib_a-mprec.o)
                                                  c:/chibistudio/tools/gnu tools arm embedded/10.3 2021.07/bin/../lib/gcc/arm-none-eabi/10.3.1/../../../../arm-none-eabi/lib/thumb/v7e-m/nofp\libg.a(lib_a-gdtoa-gethex.o)
                                                  c:/chibistudio/tools/gnu tools arm embedded/10.3 2021.07/bin/../lib/gcc/arm-none-eabi/10.3.1/../../../../arm-none-eabi/lib/thumb/v7e-m/nofp\libg.a(lib_a-strtod.o)
_C_numeric_locale                                 c:/chibistudio/tools/gnu tools arm embedded/10.3 2021.07/bin/../lib/gcc/arm-none-eabi/10.3.1/../../../../arm-none-eabi/lib/thumb/v7e-m/nofp\libg.a(lib_a-lnumeric.o)
                                                  c:/chibistudio/tools/gnu tools arm embedded/10.3 2021.07/bin/../lib/gcc/arm-none-eabi/10.3.1/../../../../arm-none-eabi/lib/thumb/v7e-m/nofp\libg.a(lib_a-gdtoa-gethex.o)
                                                  c:/chibistudio/tools/gnu tools arm embedded/10.3 2021.07/bin/../lib/gcc/arm-none-eabi/10.3.1/../../../../arm-none-eabi/lib/thumb/v7e-m/nofp\libg.a(lib_a-strtod.o)
_PathLocale                                       c:/chibistudio/tools/gnu tools arm embedded/10.3 2021.07/bin/../lib/gcc/arm-none-eabi/10.3.1/../../../../arm-none-eabi/lib/thumb/v7e-m/nofp\libg.a(lib_a-locale.o)
__adddf3                                          c:/chibistudio/tools/gnu tools arm embedded/10.3 2021.07/bin/../lib/gcc/arm-none-eabi/10.3.1/thumb/v7e-m/nofp\libgcc.a(_arm_addsubdf3.o)
__aeabi_cdcmpeq                                   c:/chibistudio/tools/gnu tools arm embedded/10.3 2021.07/bin/../lib/gcc/arm-none-eabi/10.3.1/thumb/v7e-m/nofp\libgcc.a(_arm_cmpdf2.o)
__aeabi_cdcmple                                   c:/chibistudio/tools/gnu tools arm embedded/10.3 2021.07/bin/../lib/gcc/arm-none-eabi/10.3.1/thumb/v7e-m/nofp\libgcc.a(_arm_cmpdf2.o)
__aeabi_cdrcmple                                  c:/chibistudio/tools/gnu tools arm embedded/10.3 2021.07/bin/../lib/gcc/arm-none-eabi/10.3.1/thumb/v7e-m/nofp\libgcc.a(_arm_cmpdf2.o)
__aeabi_cfcmpeq                                   c:/chibistudio/tools/gnu tools arm embedded/10.3 2021.07/bin/../lib/gcc/arm-none-eabi/10.3.1/thumb/v7e-m/nofp\libgcc.a(_arm_cmpsf2.o)
__aeabi_cfcmple                                   c:/chibistudio/tools/gnu tools arm embedded/10.3 2021.07/bin/../lib/gcc/arm-none-eabi/10.3.1/thumb/v7e-m/nofp\libgcc.a(_arm_cmpsf2.o)
__aeabi_cfrcmple                                  c:/chibistudio/tools/gnu tools arm embedded/10.3 2021.07/bin/../lib/gcc/arm-none-eabi/10.3.1/thumb/v7e-m/nofp\libgcc.a(_arm_cmpsf2.o)
__aeabi_d2f                                       c:/chibistudio/tools/gnu tools arm embedded/10.3 2021.07/bin/../lib/gcc/arm-none-eabi/10.3.1/thumb/v7e-m/nofp\libgcc.a(_arm_truncdfsf2.o)
                                                  C:\Users\zerog\AppData\Local\Temp\APS_DIGITAL_CGG.elf.PLIgTd.ltrans0.ltrans.o
                                                  c:/chibistudio/tools/gnu tools arm embedded/10.3 2021.07/bin/../lib/gcc/arm-none-eabi/10.3.1/../../../../arm-none-eabi/lib/thumb/v7e-m/nofp\libg.a(lib_a-strtod.o)
__aeabi_d2iz                                      c:/chibistudio/tools/gnu tools arm embedded/10.3 2021.07/bin/../lib/gcc/arm-none-eabi/10.3.1/thumb/v7e-m/nofp\libgcc.a(_arm_fixdfsi.o)
                                                  C:\Users\zerog\AppData\Local\Temp\APS_DIGITAL_CGG.elf.PLIgTd.ltrans0.ltrans.o
__aeabi_d2lz                                      c:/chibistudio/tools/gnu tools arm embedded/10.3 2021.07/bin/../lib/gcc/arm-none-eabi/10.3.1/thumb/v7e-m/nofp\libgcc.a(_fixdfdi.o)
                                                  c:/chibistudio/tools/gnu tools arm embedded/10.3 2021.07/bin/../lib/gcc/arm-none-eabi/10.3.1/../../../../arm-none-eabi/lib/thumb/v7e-m/nofp\libg.a(lib_a-strtod.o)
__aeabi_d2uiz                                     c:/chibistudio/tools/gnu tools arm embedded/10.3 2021.07/bin/../lib/gcc/arm-none-eabi/10.3.1/thumb/v7e-m/nofp\libgcc.a(_arm_fixunsdfsi.o)
                                                  C:\Users\zerog\AppData\Local\Temp\APS_DIGITAL_CGG.elf.PLIgTd.ltrans0.ltrans.o
                                                  c:/chibistudio/tools/gnu tools arm embedded/10.3 2021.07/bin/../lib/gcc/arm-none-eabi/10.3.1/thumb/v7e-m/nofp\libgcc.a(_fixunsdfdi.o)
                                                  c:/chibistudio/tools/gnu tools arm embedded/10.3 2021.07/bin/../lib/gcc/arm-none-eabi/10.3.1/../../../../arm-none-eabi/lib/thumb/v7e-m/nofp\libg.a(lib_a-strtod.o)
__aeabi_d2ulz                                     c:/chibistudio/tools/gnu tools arm embedded/10.3 2021.07/bin/../lib/gcc/arm-none-eabi/10.3.1/thumb/v7e-m/nofp\libgcc.a(_fixunsdfdi.o)
                                                  c:/chibistudio/tools/gnu tools arm embedded/10.3 2021.07/bin/../lib/gcc/arm-none-eabi/10.3.1/thumb/v7e-m/nofp\libgcc.a(_fixdfdi.o)
__aeabi_dadd                                      c:/chibistudio/tools/gnu tools arm embedded/10.3 2021.07/bin/../lib/gcc/arm-none-eabi/10.3.1/thumb/v7e-m/nofp\libgcc.a(_arm_addsubdf3.o)
                                                  c:/chibistudio/tools/gnu tools arm embedded/10.3 2021.07/bin/../lib/gcc/arm-none-eabi/10.3.1/../../../../arm-none-eabi/lib/thumb/v7e-m/nofp\libg.a(lib_a-strtod.o)
                                                  c:/chibistudio/tools/gnu tools arm embedded/10.3 2021.07/bin/../lib/gcc/arm-none-eabi/10.3.1/../../../../arm-none-eabi/lib/thumb/v7e-m/nofp\libm.a(lib_a-s_scalbn.o)
                                                  c:/chibistudio/tools/gnu tools arm embedded/10.3 2021.07/bin/../lib/gcc/arm-none-eabi/10.3.1/../../../../arm-none-eabi/lib/thumb/v7e-m/nofp\libm.a(lib_a-e_sqrt.o)
                                                  c:/chibistudio/tools/gnu tools arm embedded/10.3 2021.07/bin/../lib/gcc/arm-none-eabi/10.3.1/../../../../arm-none-eabi/lib/thumb/v7e-m/nofp\libm.a(lib_a-e_pow.o)
                                                  c:/chibistudio/tools/gnu tools arm embedded/10.3 2021.07/bin/../lib/gcc/arm-none-eabi/10.3.1/../../../../arm-none-eabi/lib/thumb/v7e-m/nofp\libm.a(lib_a-e_log.o)
                                                  c:/chibistudio/tools/gnu tools arm embedded/10.3 2021.07/bin/../lib/gcc/arm-none-eabi/10.3.1/../../../../arm-none-eabi/lib/thumb/v7e-m/nofp\libm.a(lib_a-s_round.o)
__aeabi_dcmpeq                                    c:/chibistudio/tools/gnu tools arm embedded/10.3 2021.07/bin/../lib/gcc/arm-none-eabi/10.3.1/thumb/v7e-m/nofp\libgcc.a(_arm_cmpdf2.o)
                                                  c:/chibistudio/tools/gnu tools arm embedded/10.3 2021.07/bin/../lib/gcc/arm-none-eabi/10.3.1/../../../../arm-none-eabi/lib/thumb/v7e-m/nofp\libg.a(lib_a-strtod.o)
                                                  c:/chibistudio/tools/gnu tools arm embedded/10.3 2021.07/bin/../lib/gcc/arm-none-eabi/10.3.1/../../../../arm-none-eabi/lib/thumb/v7e-m/nofp\libm.a(lib_a-math_err.o)
                                                  c:/chibistudio/tools/gnu tools arm embedded/10.3 2021.07/bin/../lib/gcc/arm-none-eabi/10.3.1/../../../../arm-none-eabi/lib/thumb/v7e-m/nofp\libm.a(lib_a-e_log.o)
                                                  c:/chibistudio/tools/gnu tools arm embedded/10.3 2021.07/bin/../lib/gcc/arm-none-eabi/10.3.1/../../../../arm-none-eabi/lib/thumb/v7e-m/nofp\libm.a(lib_a-w_pow.o)
                                                  c:/chibistudio/tools/gnu tools arm embedded/10.3 2021.07/bin/../lib/gcc/arm-none-eabi/10.3.1/../../../../arm-none-eabi/lib/thumb/v7e-m/nofp\libm.a(lib_a-w_log.o)
__aeabi_dcmpge                                    c:/chibistudio/tools/gnu tools arm embedded/10.3 2021.07/bin/../lib/gcc/arm-none-eabi/10.3.1/thumb/v7e-m/nofp\libgcc.a(_arm_cmpdf2.o)
                                                  c:/chibistudio/tools/gnu tools arm embedded/10.3 2021.07/bin/../lib/gcc/arm-none-eabi/10.3.1/../../../../arm-none-eabi/lib/thumb/v7e-m/nofp\libm.a(lib_a-e_pow.o)
__aeabi_dcmpgt                                    c:/chibistudio/tools/gnu tools arm embedded/10.3 2021.07/bin/../lib/gcc/arm-none-eabi/10.3.1/thumb/v7e-m/nofp\libgcc.a(_arm_cmpdf2.o)
                                                  C:\Users\zerog\AppData\Local\Temp\APS_DIGITAL_CGG.elf.PLIgTd.ltrans0.ltrans.o
                                                  c:/chibistudio/tools/gnu tools arm embedded/10.3 2021.07/bin/../lib/gcc/arm-none-eabi/10.3.1/../../../../arm-none-eabi/lib/thumb/v7e-m/nofp\libg.a(lib_a-strtod.o)
                                                  c:/chibistudio/tools/gnu tools arm embedded/10.3 2021.07/bin/../lib/gcc/arm-none-eabi/10.3.1/../../../../arm-none-eabi/lib/thumb/v7e-m/nofp\libm.a(lib_a-e_pow.o)
                                                  c:/chibistudio/tools/gnu tools arm embedded/10.3 2021.07/bin/../lib/gcc/arm-none-eabi/10.3.1/../../../../arm-none-eabi/lib/thumb/v7e-m/nofp\libm.a(lib_a-w_log.o)
__aeabi_dcmple                                    c:/chibistudio/tools/gnu tools arm embedded/10.3 2021.07/bin/../lib/gcc/arm-none-eabi/10.3.1/thumb/v7e-m/nofp\libgcc.a(_arm_cmpdf2.o)
                                                  C:\Users\zerog\AppData\Local\Temp\APS_DIGITAL_CGG.elf.PLIgTd.ltrans0.ltrans.o
                                                  c:/chibistudio/tools/gnu tools arm embedded/10.3 2021.07/bin/../lib/gcc/arm-none-eabi/10.3.1/../../../../arm-none-eabi/lib/thumb/v7e-m/nofp\libg.a(lib_a-strtod.o)
                                                  c:/chibistudio/tools/gnu tools arm embedded/10.3 2021.07/bin/../lib/gcc/arm-none-eabi/10.3.1/../../../../arm-none-eabi/lib/thumb/v7e-m/nofp\libm.a(lib_a-math_err.o)
__aeabi_dcmplt                                    c:/chibistudio/tools/gnu tools arm embedded/10.3 2021.07/bin/../lib/gcc/arm-none-eabi/10.3.1/thumb/v7e-m/nofp\libgcc.a(_arm_cmpdf2.o)
                                                  C:\Users\zerog\AppData\Local\Temp\APS_DIGITAL_CGG.elf.PLIgTd.ltrans0.ltrans.o
                                                  c:/chibistudio/tools/gnu tools arm embedded/10.3 2021.07/bin/../lib/gcc/arm-none-eabi/10.3.1/thumb/v7e-m/nofp\libgcc.a(_fixdfdi.o)
                                                  c:/chibistudio/tools/gnu tools arm embedded/10.3 2021.07/bin/../lib/gcc/arm-none-eabi/10.3.1/../../../../arm-none-eabi/lib/thumb/v7e-m/nofp\libg.a(lib_a-strtod.o)
                                                  c:/chibistudio/tools/gnu tools arm embedded/10.3 2021.07/bin/../lib/gcc/arm-none-eabi/10.3.1/../../../../arm-none-eabi/lib/thumb/v7e-m/nofp\libm.a(lib_a-e_pow.o)
                                                  c:/chibistudio/tools/gnu tools arm embedded/10.3 2021.07/bin/../lib/gcc/arm-none-eabi/10.3.1/../../../../arm-none-eabi/lib/thumb/v7e-m/nofp\libm.a(lib_a-w_pow.o)
__aeabi_dcmpun                                    c:/chibistudio/tools/gnu tools arm embedded/10.3 2021.07/bin/../lib/gcc/arm-none-eabi/10.3.1/thumb/v7e-m/nofp\libgcc.a(_arm_unorddf2.o)
                                                  c:/chibistudio/tools/gnu tools arm embedded/10.3 2021.07/bin/../lib/gcc/arm-none-eabi/10.3.1/../../../../arm-none-eabi/lib/thumb/v7e-m/nofp\libg.a(lib_a-strtod.o)
                                                  c:/chibistudio/tools/gnu tools arm embedded/10.3 2021.07/bin/../lib/gcc/arm-none-eabi/10.3.1/../../../../arm-none-eabi/lib/thumb/v7e-m/nofp\libm.a(lib_a-math_err.o)
                                                  c:/chibistudio/tools/gnu tools arm embedded/10.3 2021.07/bin/../lib/gcc/arm-none-eabi/10.3.1/../../../../arm-none-eabi/lib/thumb/v7e-m/nofp\libm.a(lib_a-w_pow.o)
                                                  c:/chibistudio/tools/gnu tools arm embedded/10.3 2021.07/bin/../lib/gcc/arm-none-eabi/10.3.1/../../../../arm-none-eabi/lib/thumb/v7e-m/nofp\libm.a(lib_a-w_log.o)
__aeabi_ddiv                                      c:/chibistudio/tools/gnu tools arm embedded/10.3 2021.07/bin/../lib/gcc/arm-none-eabi/10.3.1/thumb/v7e-m/nofp\libgcc.a(_arm_muldivdf3.o)
                                                  C:\Users\zerog\AppData\Local\Temp\APS_DIGITAL_CGG.elf.PLIgTd.ltrans0.ltrans.o
                                                  c:/chibistudio/tools/gnu tools arm embedded/10.3 2021.07/bin/../lib/gcc/arm-none-eabi/10.3.1/../../../../arm-none-eabi/lib/thumb/v7e-m/nofp\libg.a(lib_a-mprec.o)
                                                  c:/chibistudio/tools/gnu tools arm embedded/10.3 2021.07/bin/../lib/gcc/arm-none-eabi/10.3.1/../../../../arm-none-eabi/lib/thumb/v7e-m/nofp\libg.a(lib_a-strtod.o)
                                                  c:/chibistudio/tools/gnu tools arm embedded/10.3 2021.07/bin/../lib/gcc/arm-none-eabi/10.3.1/../../../../arm-none-eabi/lib/thumb/v7e-m/nofp\libm.a(lib_a-math_err.o)
                                                  c:/chibistudio/tools/gnu tools arm embedded/10.3 2021.07/bin/../lib/gcc/arm-none-eabi/10.3.1/../../../../arm-none-eabi/lib/thumb/v7e-m/nofp\libm.a(lib_a-e_sqrt.o)
                                                  c:/chibistudio/tools/gnu tools arm embedded/10.3 2021.07/bin/../lib/gcc/arm-none-eabi/10.3.1/../../../../arm-none-eabi/lib/thumb/v7e-m/nofp\libm.a(lib_a-e_pow.o)
                                                  c:/chibistudio/tools/gnu tools arm embedded/10.3 2021.07/bin/../lib/gcc/arm-none-eabi/10.3.1/../../../../arm-none-eabi/lib/thumb/v7e-m/nofp\libm.a(lib_a-e_log.o)
__aeabi_dmul                                      c:/chibistudio/tools/gnu tools arm embedded/10.3 2021.07/bin/../lib/gcc/arm-none-eabi/10.3.1/thumb/v7e-m/nofp\libgcc.a(_arm_muldivdf3.o)
                                                  c:/chibistudio/tools/gnu tools arm embedded/10.3 2021.07/bin/../lib/gcc/arm-none-eabi/10.3.1/thumb/v7e-m/nofp\libgcc.a(_arm_muldf3.o)
                                                  C:\Users\zerog\AppData\Local\Temp\APS_DIGITAL_CGG.elf.PLIgTd.ltrans0.ltrans.o
                                                  c:/chibistudio/tools/gnu tools arm embedded/10.3 2021.07/bin/../lib/gcc/arm-none-eabi/10.3.1/thumb/v7e-m/nofp\libgcc.a(_fixunsdfdi.o)
                                                  c:/chibistudio/tools/gnu tools arm embedded/10.3 2021.07/bin/../lib/gcc/arm-none-eabi/10.3.1/../../../../arm-none-eabi/lib/thumb/v7e-m/nofp\libg.a(lib_a-mprec.o)
                                                  c:/chibistudio/tools/gnu tools arm embedded/10.3 2021.07/bin/../lib/gcc/arm-none-eabi/10.3.1/../../../../arm-none-eabi/lib/thumb/v7e-m/nofp\libg.a(lib_a-strtod.o)
                                                  c:/chibistudio/tools/gnu tools arm embedded/10.3 2021.07/bin/../lib/gcc/arm-none-eabi/10.3.1/../../../../arm-none-eabi/lib/thumb/v7e-m/nofp\libm.a(lib_a-s_scalbn.o)
                                                  c:/chibistudio/tools/gnu tools arm embedded/10.3 2021.07/bin/../lib/gcc/arm-none-eabi/10.3.1/../../../../arm-none-eabi/lib/thumb/v7e-m/nofp\libm.a(lib_a-math_err.o)
                                                  c:/chibistudio/tools/gnu tools arm embedded/10.3 2021.07/bin/../lib/gcc/arm-none-eabi/10.3.1/../../../../arm-none-eabi/lib/thumb/v7e-m/nofp\libm.a(lib_a-e_sqrt.o)
                                                  c:/chibistudio/tools/gnu tools arm embedded/10.3 2021.07/bin/../lib/gcc/arm-none-eabi/10.3.1/../../../../arm-none-eabi/lib/thumb/v7e-m/nofp\libm.a(lib_a-e_pow.o)
                                                  c:/chibistudio/tools/gnu tools arm embedded/10.3 2021.07/bin/../lib/gcc/arm-none-eabi/10.3.1/../../../../arm-none-eabi/lib/thumb/v7e-m/nofp\libm.a(lib_a-e_log.o)
__aeabi_drsub                                     c:/chibistudio/tools/gnu tools arm embedded/10.3 2021.07/bin/../lib/gcc/arm-none-eabi/10.3.1/thumb/v7e-m/nofp\libgcc.a(_arm_addsubdf3.o)
__aeabi_dsub                                      c:/chibistudio/tools/gnu tools arm embedded/10.3 2021.07/bin/../lib/gcc/arm-none-eabi/10.3.1/thumb/v7e-m/nofp\libgcc.a(_arm_addsubdf3.o)
                                                  C:\Users\zerog\AppData\Local\Temp\APS_DIGITAL_CGG.elf.PLIgTd.ltrans0.ltrans.o
                                                  c:/chibistudio/tools/gnu tools arm embedded/10.3 2021.07/bin/../lib/gcc/arm-none-eabi/10.3.1/thumb/v7e-m/nofp\libgcc.a(_fixunsdfdi.o)
                                                  c:/chibistudio/tools/gnu tools arm embedded/10.3 2021.07/bin/../lib/gcc/arm-none-eabi/10.3.1/../../../../arm-none-eabi/lib/thumb/v7e-m/nofp\libg.a(lib_a-strtod.o)
                                                  c:/chibistudio/tools/gnu tools arm embedded/10.3 2021.07/bin/../lib/gcc/arm-none-eabi/10.3.1/../../../../arm-none-eabi/lib/thumb/v7e-m/nofp\libm.a(lib_a-math_err.o)
                                                  c:/chibistudio/tools/gnu tools arm embedded/10.3 2021.07/bin/../lib/gcc/arm-none-eabi/10.3.1/../../../../arm-none-eabi/lib/thumb/v7e-m/nofp\libm.a(lib_a-e_sqrt.o)
                                                  c:/chibistudio/tools/gnu tools arm embedded/10.3 2021.07/bin/../lib/gcc/arm-none-eabi/10.3.1/../../../../arm-none-eabi/lib/thumb/v7e-m/nofp\libm.a(lib_a-e_pow.o)
                                                  c:/chibistudio/tools/gnu tools arm embedded/10.3 2021.07/bin/../lib/gcc/arm-none-eabi/10.3.1/../../../../arm-none-eabi/lib/thumb/v7e-m/nofp\libm.a(lib_a-e_log.o)
__aeabi_f2d                                       c:/chibistudio/tools/gnu tools arm embedded/10.3 2021.07/bin/../lib/gcc/arm-none-eabi/10.3.1/thumb/v7e-m/nofp\libgcc.a(_arm_addsubdf3.o)
                                                  C:\Users\zerog\AppData\Local\Temp\APS_DIGITAL_CGG.elf.PLIgTd.ltrans0.ltrans.o
__aeabi_f2iz                                      c:/chibistudio/tools/gnu tools arm embedded/10.3 2021.07/bin/../lib/gcc/arm-none-eabi/10.3.1/thumb/v7e-m/nofp\libgcc.a(_arm_fixsfsi.o)
                                                  C:\Users\zerog\AppData\Local\Temp\APS_DIGITAL_CGG.elf.PLIgTd.ltrans0.ltrans.o
__aeabi_f2uiz                                     c:/chibistudio/tools/gnu tools arm embedded/10.3 2021.07/bin/../lib/gcc/arm-none-eabi/10.3.1/thumb/v7e-m/nofp\libgcc.a(_arm_fixunssfsi.o)
                                                  C:\Users\zerog\AppData\Local\Temp\APS_DIGITAL_CGG.elf.PLIgTd.ltrans0.ltrans.o
__aeabi_fcmpeq                                    c:/chibistudio/tools/gnu tools arm embedded/10.3 2021.07/bin/../lib/gcc/arm-none-eabi/10.3.1/thumb/v7e-m/nofp\libgcc.a(_arm_cmpsf2.o)
__aeabi_fcmpge                                    c:/chibistudio/tools/gnu tools arm embedded/10.3 2021.07/bin/../lib/gcc/arm-none-eabi/10.3.1/thumb/v7e-m/nofp\libgcc.a(_arm_cmpsf2.o)
__aeabi_fcmpgt                                    c:/chibistudio/tools/gnu tools arm embedded/10.3 2021.07/bin/../lib/gcc/arm-none-eabi/10.3.1/thumb/v7e-m/nofp\libgcc.a(_arm_cmpsf2.o)
__aeabi_fcmple                                    c:/chibistudio/tools/gnu tools arm embedded/10.3 2021.07/bin/../lib/gcc/arm-none-eabi/10.3.1/thumb/v7e-m/nofp\libgcc.a(_arm_cmpsf2.o)
                                                  c:/chibistudio/tools/gnu tools arm embedded/10.3 2021.07/bin/../lib/gcc/arm-none-eabi/10.3.1/../../../../arm-none-eabi/lib/thumb/v7e-m/nofp\libg.a(lib_a-strtod.o)
__aeabi_fcmplt                                    c:/chibistudio/tools/gnu tools arm embedded/10.3 2021.07/bin/../lib/gcc/arm-none-eabi/10.3.1/thumb/v7e-m/nofp\libgcc.a(_arm_cmpsf2.o)
                                                  C:\Users\zerog\AppData\Local\Temp\APS_DIGITAL_CGG.elf.PLIgTd.ltrans0.ltrans.o
__aeabi_fcmpun                                    c:/chibistudio/tools/gnu tools arm embedded/10.3 2021.07/bin/../lib/gcc/arm-none-eabi/10.3.1/thumb/v7e-m/nofp\libgcc.a(_arm_unordsf2.o)
                                                  c:/chibistudio/tools/gnu tools arm embedded/10.3 2021.07/bin/../lib/gcc/arm-none-eabi/10.3.1/../../../../arm-none-eabi/lib/thumb/v7e-m/nofp\libg.a(lib_a-strtod.o)
__aeabi_fmul                                      c:/chibistudio/tools/gnu tools arm embedded/10.3 2021.07/bin/../lib/gcc/arm-none-eabi/10.3.1/thumb/v7e-m/nofp\libgcc.a(_arm_mulsf3.o)
                                                  C:\Users\zerog\AppData\Local\Temp\APS_DIGITAL_CGG.elf.PLIgTd.ltrans0.ltrans.o
__aeabi_i2d                                       c:/chibistudio/tools/gnu tools arm embedded/10.3 2021.07/bin/../lib/gcc/arm-none-eabi/10.3.1/thumb/v7e-m/nofp\libgcc.a(_arm_addsubdf3.o)
                                                  C:\Users\zerog\AppData\Local\Temp\APS_DIGITAL_CGG.elf.PLIgTd.ltrans0.ltrans.o
                                                  c:/chibistudio/tools/gnu tools arm embedded/10.3 2021.07/bin/../lib/gcc/arm-none-eabi/10.3.1/../../../../arm-none-eabi/lib/thumb/v7e-m/nofp\libm.a(lib_a-e_pow.o)
                                                  c:/chibistudio/tools/gnu tools arm embedded/10.3 2021.07/bin/../lib/gcc/arm-none-eabi/10.3.1/../../../../arm-none-eabi/lib/thumb/v7e-m/nofp\libm.a(lib_a-e_log.o)
__aeabi_idiv0                                     c:/chibistudio/tools/gnu tools arm embedded/10.3 2021.07/bin/../lib/gcc/arm-none-eabi/10.3.1/thumb/v7e-m/nofp\libgcc.a(_dvmd_tls.o)
__aeabi_l2d                                       c:/chibistudio/tools/gnu tools arm embedded/10.3 2021.07/bin/../lib/gcc/arm-none-eabi/10.3.1/thumb/v7e-m/nofp\libgcc.a(_arm_addsubdf3.o)
                                                  c:/chibistudio/tools/gnu tools arm embedded/10.3 2021.07/bin/../lib/gcc/arm-none-eabi/10.3.1/../../../../arm-none-eabi/lib/thumb/v7e-m/nofp\libg.a(lib_a-strtod.o)
__aeabi_ldiv0                                     c:/chibistudio/tools/gnu tools arm embedded/10.3 2021.07/bin/../lib/gcc/arm-none-eabi/10.3.1/thumb/v7e-m/nofp\libgcc.a(_dvmd_tls.o)
                                                  c:/chibistudio/tools/gnu tools arm embedded/10.3 2021.07/bin/../lib/gcc/arm-none-eabi/10.3.1/thumb/v7e-m/nofp\libgcc.a(_aeabi_ldivmod.o)
                                                  c:/chibistudio/tools/gnu tools arm embedded/10.3 2021.07/bin/../lib/gcc/arm-none-eabi/10.3.1/thumb/v7e-m/nofp\libgcc.a(_aeabi_uldivmod.o)
__aeabi_ldivmod                                   c:/chibistudio/tools/gnu tools arm embedded/10.3 2021.07/bin/../lib/gcc/arm-none-eabi/10.3.1/thumb/v7e-m/nofp\libgcc.a(_aeabi_ldivmod.o)
                                                  C:\Users\zerog\AppData\Local\Temp\APS_DIGITAL_CGG.elf.PLIgTd.ltrans0.ltrans.o
__aeabi_ui2d                                      c:/chibistudio/tools/gnu tools arm embedded/10.3 2021.07/bin/../lib/gcc/arm-none-eabi/10.3.1/thumb/v7e-m/nofp\libgcc.a(_arm_addsubdf3.o)
                                                  C:\Users\zerog\AppData\Local\Temp\APS_DIGITAL_CGG.elf.PLIgTd.ltrans0.ltrans.o
                                                  c:/chibistudio/tools/gnu tools arm embedded/10.3 2021.07/bin/../lib/gcc/arm-none-eabi/10.3.1/thumb/v7e-m/nofp\libgcc.a(_fixunsdfdi.o)
                                                  c:/chibistudio/tools/gnu tools arm embedded/10.3 2021.07/bin/../lib/gcc/arm-none-eabi/10.3.1/../../../../arm-none-eabi/lib/thumb/v7e-m/nofp\libg.a(lib_a-strtod.o)
__aeabi_ul2d                                      c:/chibistudio/tools/gnu tools arm embedded/10.3 2021.07/bin/../lib/gcc/arm-none-eabi/10.3.1/thumb/v7e-m/nofp\libgcc.a(_arm_addsubdf3.o)
__aeabi_uldivmod                                  c:/chibistudio/tools/gnu tools arm embedded/10.3 2021.07/bin/../lib/gcc/arm-none-eabi/10.3.1/thumb/v7e-m/nofp\libgcc.a(_aeabi_uldivmod.o)
                                                  C:\Users\zerog\AppData\Local\Temp\APS_DIGITAL_CGG.elf.PLIgTd.ltrans0.ltrans.o
                                                  c:/chibistudio/tools/gnu tools arm embedded/10.3 2021.07/bin/../lib/gcc/arm-none-eabi/10.3.1/../../../../arm-none-eabi/lib/thumb/v7e-m/nofp\libg.a(lib_a-vfiprintf.o)
__any_on                                          c:/chibistudio/tools/gnu tools arm embedded/10.3 2021.07/bin/../lib/gcc/arm-none-eabi/10.3.1/../../../../arm-none-eabi/lib/thumb/v7e-m/nofp\libg.a(lib_a-mprec.o)
                                                  c:/chibistudio/tools/gnu tools arm embedded/10.3 2021.07/bin/../lib/gcc/arm-none-eabi/10.3.1/../../../../arm-none-eabi/lib/thumb/v7e-m/nofp\libg.a(lib_a-gdtoa-gethex.o)
__ascii_mbtowc                                    c:/chibistudio/tools/gnu tools arm embedded/10.3 2021.07/bin/../lib/gcc/arm-none-eabi/10.3.1/../../../../arm-none-eabi/lib/thumb/v7e-m/nofp\libg.a(lib_a-mbtowc_r.o)
                                                  c:/chibistudio/tools/gnu tools arm embedded/10.3 2021.07/bin/../lib/gcc/arm-none-eabi/10.3.1/../../../../arm-none-eabi/lib/thumb/v7e-m/nofp\libg.a(lib_a-locale.o)
__ascii_wctomb                                    c:/chibistudio/tools/gnu tools arm embedded/10.3 2021.07/bin/../lib/gcc/arm-none-eabi/10.3.1/../../../../arm-none-eabi/lib/thumb/v7e-m/nofp\libg.a(lib_a-wctomb_r.o)
                                                  c:/chibistudio/tools/gnu tools arm embedded/10.3 2021.07/bin/../lib/gcc/arm-none-eabi/10.3.1/../../../../arm-none-eabi/lib/thumb/v7e-m/nofp\libg.a(lib_a-locale.o)
__assert                                          c:/chibistudio/tools/gnu tools arm embedded/10.3 2021.07/bin/../lib/gcc/arm-none-eabi/10.3.1/../../../../arm-none-eabi/lib/thumb/v7e-m/nofp\libg.a(lib_a-assert.o)
__assert_func                                     c:/chibistudio/tools/gnu tools arm embedded/10.3 2021.07/bin/../lib/gcc/arm-none-eabi/10.3.1/../../../../arm-none-eabi/lib/thumb/v7e-m/nofp\libg.a(lib_a-assert.o)
                                                  c:/chibistudio/tools/gnu tools arm embedded/10.3 2021.07/bin/../lib/gcc/arm-none-eabi/10.3.1/../../../../arm-none-eabi/lib/thumb/v7e-m/nofp\libg.a(lib_a-mprec.o)
                                                  c:/chibistudio/tools/gnu tools arm embedded/10.3 2021.07/bin/../lib/gcc/arm-none-eabi/10.3.1/../../../../arm-none-eabi/lib/thumb/v7e-m/nofp\libg.a(lib_a-gdtoa-gethex.o)
__b2d                                             c:/chibistudio/tools/gnu tools arm embedded/10.3 2021.07/bin/../lib/gcc/arm-none-eabi/10.3.1/../../../../arm-none-eabi/lib/thumb/v7e-m/nofp\libg.a(lib_a-mprec.o)
__bss_base__                                      ./build/obj/crt0_v7m.o
__bss_end__                                       ./build/obj/crt0_v7m.o
__cmpdf2                                          c:/chibistudio/tools/gnu tools arm embedded/10.3 2021.07/bin/../lib/gcc/arm-none-eabi/10.3.1/thumb/v7e-m/nofp\libgcc.a(_arm_cmpdf2.o)
__cmpsf2                                          c:/chibistudio/tools/gnu tools arm embedded/10.3 2021.07/bin/../lib/gcc/arm-none-eabi/10.3.1/thumb/v7e-m/nofp\libgcc.a(_arm_cmpsf2.o)
__copybits                                        c:/chibistudio/tools/gnu tools arm embedded/10.3 2021.07/bin/../lib/gcc/arm-none-eabi/10.3.1/../../../../arm-none-eabi/lib/thumb/v7e-m/nofp\libg.a(lib_a-mprec.o)
                                                  c:/chibistudio/tools/gnu tools arm embedded/10.3 2021.07/bin/../lib/gcc/arm-none-eabi/10.3.1/../../../../arm-none-eabi/lib/thumb/v7e-m/nofp\libg.a(lib_a-strtod.o)
__core_init                                       ./build/obj/chmemcore.o (symbol from plugin)
                                                  ./build/obj/chsys.o (symbol from plugin)
__cpu_init                                        C:\Users\zerog\AppData\Local\Temp\APS_DIGITAL_CGG.elf.PLIgTd.ltrans0.ltrans.o
                                                  ./build/obj/crt1.o (symbol from plugin)
                                                  ./build/obj/crt0_v7m.o
__cxa_pure_virtual                                ./build/obj/syscalls.o (symbol from plugin)
__d2b                                             c:/chibistudio/tools/gnu tools arm embedded/10.3 2021.07/bin/../lib/gcc/arm-none-eabi/10.3.1/../../../../arm-none-eabi/lib/thumb/v7e-m/nofp\libg.a(lib_a-mprec.o)
                                                  c:/chibistudio/tools/gnu tools arm embedded/10.3 2021.07/bin/../lib/gcc/arm-none-eabi/10.3.1/../../../../arm-none-eabi/lib/thumb/v7e-m/nofp\libg.a(lib_a-strtod.o)
__data_base__                                     ./build/obj/crt0_v7m.o
__data_end__                                      ./build/obj/crt0_v7m.o
__dbg_check_disable                               ./build/obj/chdebug.o (symbol from plugin)
__dbg_check_enable                                ./build/obj/chdebug.o (symbol from plugin)
__dbg_check_enter_isr                             ./build/obj/chdebug.o (symbol from plugin)
                                                  ./build/obj/hal_usb_lld.o (symbol from plugin)
                                                  ./build/obj/stm32_dma.o (symbol from plugin)
                                                  ./build/obj/stm32_isr.o (symbol from plugin)
__dbg_check_leave_isr                             ./build/obj/chdebug.o (symbol from plugin)
                                                  ./build/obj/hal_usb_lld.o (symbol from plugin)
                                                  ./build/obj/stm32_dma.o (symbol from plugin)
                                                  ./build/obj/stm32_isr.o (symbol from plugin)
__dbg_check_lock                                  ./build/obj/chdebug.o (symbol from plugin)
                                                  ./build/obj/digital_driver.o (symbol from plugin)
                                                  ./build/obj/shell.o (symbol from plugin)
                                                  ./build/obj/chcore.o (symbol from plugin)
                                                  ./build/obj/chmempools.o (symbol from plugin)
                                                  ./build/obj/chmemcore.o (symbol from plugin)
                                                  ./build/obj/chmboxes.o (symbol from plugin)
                                                  ./build/obj/chdynamic.o (symbol from plugin)
                                                  ./build/obj/chmsg.o (symbol from plugin)
                                                  ./build/obj/chevents.o (symbol from plugin)
                                                  ./build/obj/chcond.o (symbol from plugin)
                                                  ./build/obj/chmtx.o (symbol from plugin)
                                                  ./build/obj/chsem.o (symbol from plugin)
                                                  ./build/obj/chregistry.o (symbol from plugin)
                                                  ./build/obj/chthreads.o (symbol from plugin)
                                                  ./build/obj/chsys.o (symbol from plugin)
                                                  ./build/obj/stm32_dma.o (symbol from plugin)
                                                  ./build/obj/hal_usb.o (symbol from plugin)
                                                  ./build/obj/hal_spi.o (symbol from plugin)
                                                  ./build/obj/hal_sio.o (symbol from plugin)
                                                  ./build/obj/hal_serial_usb.o (symbol from plugin)
                                                  ./build/obj/hal_pal.o (symbol from plugin)
                                                  ./build/obj/hal_gpt.o (symbol from plugin)
                                                  ./build/obj/hal_queues.o (symbol from plugin)
                                                  ./build/obj/hal_buffers.o (symbol from plugin)
__dbg_check_lock_from_isr                         ./build/obj/chdebug.o (symbol from plugin)
                                                  ./build/obj/usbcfg.o (symbol from plugin)
                                                  ./build/obj/chschd.o (symbol from plugin)
                                                  ./build/obj/chvt.o (symbol from plugin)
                                                  ./build/obj/chsys.o (symbol from plugin)
                                                  ./build/obj/hal_sio_lld.o (symbol from plugin)
                                                  ./build/obj/hal_st_lld.o (symbol from plugin)
                                                  ./build/obj/hal_spi_v2_lld.o (symbol from plugin)
                                                  ./build/obj/stm32_isr.o (symbol from plugin)
                                                  ./build/obj/hal_usb.o (symbol from plugin)
                                                  ./build/obj/hal_serial_usb.o (symbol from plugin)
__dbg_check_suspend                               ./build/obj/chdebug.o (symbol from plugin)
__dbg_check_unlock                                C:\Users\zerog\AppData\Local\Temp\APS_DIGITAL_CGG.elf.PLIgTd.ltrans0.ltrans.o
                                                  ./build/obj/chdebug.o (symbol from plugin)
                                                  ./build/obj/digital_driver.o (symbol from plugin)
                                                  ./build/obj/chcore.o (symbol from plugin)
                                                  ./build/obj/chmempools.o (symbol from plugin)
                                                  ./build/obj/chmemcore.o (symbol from plugin)
                                                  ./build/obj/chmboxes.o (symbol from plugin)
                                                  ./build/obj/chdynamic.o (symbol from plugin)
                                                  ./build/obj/chmsg.o (symbol from plugin)
                                                  ./build/obj/chevents.o (symbol from plugin)
                                                  ./build/obj/chcond.o (symbol from plugin)
                                                  ./build/obj/chmtx.o (symbol from plugin)
                                                  ./build/obj/chsem.o (symbol from plugin)
                                                  ./build/obj/chregistry.o (symbol from plugin)
                                                  ./build/obj/chthreads.o (symbol from plugin)
                                                  ./build/obj/chsys.o (symbol from plugin)
                                                  ./build/obj/stm32_dma.o (symbol from plugin)
                                                  ./build/obj/hal_usb.o (symbol from plugin)
                                                  ./build/obj/hal_spi.o (symbol from plugin)
                                                  ./build/obj/hal_sio.o (symbol from plugin)
                                                  ./build/obj/hal_serial_usb.o (symbol from plugin)
                                                  ./build/obj/hal_pal.o (symbol from plugin)
                                                  ./build/obj/hal_gpt.o (symbol from plugin)
                                                  ./build/obj/hal_queues.o (symbol from plugin)
                                                  ./build/obj/hal_buffers.o (symbol from plugin)
                                                  ./build/obj/chcoreasm.o
__dbg_check_unlock_from_isr                       ./build/obj/chdebug.o (symbol from plugin)
                                                  ./build/obj/usbcfg.o (symbol from plugin)
                                                  ./build/obj/chschd.o (symbol from plugin)
                                                  ./build/obj/chvt.o (symbol from plugin)
                                                  ./build/obj/chsys.o (symbol from plugin)
                                                  ./build/obj/hal_sio_lld.o (symbol from plugin)
                                                  ./build/obj/hal_st_lld.o (symbol from plugin)
                                                  ./build/obj/hal_spi_v2_lld.o (symbol from plugin)
                                                  ./build/obj/stm32_isr.o (symbol from plugin)
                                                  ./build/obj/hal_usb.o (symbol from plugin)
                                                  ./build/obj/hal_serial_usb.o (symbol from plugin)
__default_exit                                    C:\Users\zerog\AppData\Local\Temp\APS_DIGITAL_CGG.elf.PLIgTd.ltrans0.ltrans.o
                                                  ./build/obj/crt1.o (symbol from plugin)
                                                  ./build/obj/crt0_v7m.o
__divdf3                                          c:/chibistudio/tools/gnu tools arm embedded/10.3 2021.07/bin/../lib/gcc/arm-none-eabi/10.3.1/thumb/v7e-m/nofp\libgcc.a(_arm_muldivdf3.o)
__early_init                                      C:\Users\zerog\AppData\Local\Temp\APS_DIGITAL_CGG.elf.PLIgTd.ltrans0.ltrans.o
                                                  ./build/obj/board.o (symbol from plugin)
                                                  ./build/obj/crt1.o (symbol from plugin)
                                                  ./build/obj/crt0_v7m.o
__eqdf2                                           c:/chibistudio/tools/gnu tools arm embedded/10.3 2021.07/bin/../lib/gcc/arm-none-eabi/10.3.1/thumb/v7e-m/nofp\libgcc.a(_arm_cmpdf2.o)
__eqsf2                                           c:/chibistudio/tools/gnu tools arm embedded/10.3 2021.07/bin/../lib/gcc/arm-none-eabi/10.3.1/thumb/v7e-m/nofp\libgcc.a(_arm_cmpsf2.o)
__errno                                           c:/chibistudio/tools/gnu tools arm embedded/10.3 2021.07/bin/../lib/gcc/arm-none-eabi/10.3.1/../../../../arm-none-eabi/lib/thumb/v7e-m/nofp\libg.a(lib_a-errno.o)
                                                  c:/chibistudio/tools/gnu tools arm embedded/10.3 2021.07/bin/../lib/gcc/arm-none-eabi/10.3.1/../../../../arm-none-eabi/lib/thumb/v7e-m/nofp\libg.a(lib_a-callocr.o)
                                                  c:/chibistudio/tools/gnu tools arm embedded/10.3 2021.07/bin/../lib/gcc/arm-none-eabi/10.3.1/../../../../arm-none-eabi/lib/thumb/v7e-m/nofp\libm.a(lib_a-math_err.o)
                                                  c:/chibistudio/tools/gnu tools arm embedded/10.3 2021.07/bin/../lib/gcc/arm-none-eabi/10.3.1/../../../../arm-none-eabi/lib/thumb/v7e-m/nofp\libm.a(lib_a-w_pow.o)
                                                  c:/chibistudio/tools/gnu tools arm embedded/10.3 2021.07/bin/../lib/gcc/arm-none-eabi/10.3.1/../../../../arm-none-eabi/lib/thumb/v7e-m/nofp\libm.a(lib_a-w_log.o)
__extendsfdf2                                     c:/chibistudio/tools/gnu tools arm embedded/10.3 2021.07/bin/../lib/gcc/arm-none-eabi/10.3.1/thumb/v7e-m/nofp\libgcc.a(_arm_addsubdf3.o)
__fini_array_base__                               ./build/obj/crt0_v7m.o
__fini_array_end__                                ./build/obj/crt0_v7m.o
__fixdfdi                                         c:/chibistudio/tools/gnu tools arm embedded/10.3 2021.07/bin/../lib/gcc/arm-none-eabi/10.3.1/thumb/v7e-m/nofp\libgcc.a(_fixdfdi.o)
__fixdfsi                                         c:/chibistudio/tools/gnu tools arm embedded/10.3 2021.07/bin/../lib/gcc/arm-none-eabi/10.3.1/thumb/v7e-m/nofp\libgcc.a(_arm_fixdfsi.o)
__fixsfsi                                         c:/chibistudio/tools/gnu tools arm embedded/10.3 2021.07/bin/../lib/gcc/arm-none-eabi/10.3.1/thumb/v7e-m/nofp\libgcc.a(_arm_fixsfsi.o)
__fixunsdfdi                                      c:/chibistudio/tools/gnu tools arm embedded/10.3 2021.07/bin/../lib/gcc/arm-none-eabi/10.3.1/thumb/v7e-m/nofp\libgcc.a(_fixunsdfdi.o)
__fixunsdfsi                                      c:/chibistudio/tools/gnu tools arm embedded/10.3 2021.07/bin/../lib/gcc/arm-none-eabi/10.3.1/thumb/v7e-m/nofp\libgcc.a(_arm_fixunsdfsi.o)
__fixunssfsi                                      c:/chibistudio/tools/gnu tools arm embedded/10.3 2021.07/bin/../lib/gcc/arm-none-eabi/10.3.1/thumb/v7e-m/nofp\libgcc.a(_arm_fixunssfsi.o)
__floatdidf                                       c:/chibistudio/tools/gnu tools arm embedded/10.3 2021.07/bin/../lib/gcc/arm-none-eabi/10.3.1/thumb/v7e-m/nofp\libgcc.a(_arm_addsubdf3.o)
__floatsidf                                       c:/chibistudio/tools/gnu tools arm embedded/10.3 2021.07/bin/../lib/gcc/arm-none-eabi/10.3.1/thumb/v7e-m/nofp\libgcc.a(_arm_addsubdf3.o)
__floatundidf                                     c:/chibistudio/tools/gnu tools arm embedded/10.3 2021.07/bin/../lib/gcc/arm-none-eabi/10.3.1/thumb/v7e-m/nofp\libgcc.a(_arm_addsubdf3.o)
__floatunsidf                                     c:/chibistudio/tools/gnu tools arm embedded/10.3 2021.07/bin/../lib/gcc/arm-none-eabi/10.3.1/thumb/v7e-m/nofp\libgcc.a(_arm_addsubdf3.o)
__fp_lock_all                                     c:/chibistudio/tools/gnu tools arm embedded/10.3 2021.07/bin/../lib/gcc/arm-none-eabi/10.3.1/../../../../arm-none-eabi/lib/thumb/v7e-m/nofp\libg.a(lib_a-findfp.o)
__fp_unlock_all                                   c:/chibistudio/tools/gnu tools arm embedded/10.3 2021.07/bin/../lib/gcc/arm-none-eabi/10.3.1/../../../../arm-none-eabi/lib/thumb/v7e-m/nofp\libg.a(lib_a-findfp.o)
__fputwc                                          c:/chibistudio/tools/gnu tools arm embedded/10.3 2021.07/bin/../lib/gcc/arm-none-eabi/10.3.1/../../../../arm-none-eabi/lib/thumb/v7e-m/nofp\libg.a(lib_a-fputwc.o)
__gedf2                                           c:/chibistudio/tools/gnu tools arm embedded/10.3 2021.07/bin/../lib/gcc/arm-none-eabi/10.3.1/thumb/v7e-m/nofp\libgcc.a(_arm_cmpdf2.o)
__gesf2                                           c:/chibistudio/tools/gnu tools arm embedded/10.3 2021.07/bin/../lib/gcc/arm-none-eabi/10.3.1/thumb/v7e-m/nofp\libgcc.a(_arm_cmpsf2.o)
__gethex                                          c:/chibistudio/tools/gnu tools arm embedded/10.3 2021.07/bin/../lib/gcc/arm-none-eabi/10.3.1/../../../../arm-none-eabi/lib/thumb/v7e-m/nofp\libg.a(lib_a-gdtoa-gethex.o)
                                                  c:/chibistudio/tools/gnu tools arm embedded/10.3 2021.07/bin/../lib/gcc/arm-none-eabi/10.3.1/../../../../arm-none-eabi/lib/thumb/v7e-m/nofp\libg.a(lib_a-strtod.o)
__global_locale                                   c:/chibistudio/tools/gnu tools arm embedded/10.3 2021.07/bin/../lib/gcc/arm-none-eabi/10.3.1/../../../../arm-none-eabi/lib/thumb/v7e-m/nofp\libg.a(lib_a-locale.o)
                                                  c:/chibistudio/tools/gnu tools arm embedded/10.3 2021.07/bin/../lib/gcc/arm-none-eabi/10.3.1/../../../../arm-none-eabi/lib/thumb/v7e-m/nofp\libg.a(lib_a-wcrtomb.o)
                                                  c:/chibistudio/tools/gnu tools arm embedded/10.3 2021.07/bin/../lib/gcc/arm-none-eabi/10.3.1/../../../../arm-none-eabi/lib/thumb/v7e-m/nofp\libg.a(lib_a-localeconv.o)
                                                  c:/chibistudio/tools/gnu tools arm embedded/10.3 2021.07/bin/../lib/gcc/arm-none-eabi/10.3.1/../../../../arm-none-eabi/lib/thumb/v7e-m/nofp\libg.a(lib_a-wctomb_r.o)
                                                  c:/chibistudio/tools/gnu tools arm embedded/10.3 2021.07/bin/../lib/gcc/arm-none-eabi/10.3.1/../../../../arm-none-eabi/lib/thumb/v7e-m/nofp\libg.a(lib_a-mbtowc_r.o)
                                                  c:/chibistudio/tools/gnu tools arm embedded/10.3 2021.07/bin/../lib/gcc/arm-none-eabi/10.3.1/../../../../arm-none-eabi/lib/thumb/v7e-m/nofp\libg.a(lib_a-strtod.o)
__gtdf2                                           c:/chibistudio/tools/gnu tools arm embedded/10.3 2021.07/bin/../lib/gcc/arm-none-eabi/10.3.1/thumb/v7e-m/nofp\libgcc.a(_arm_cmpdf2.o)
__gtsf2                                           c:/chibistudio/tools/gnu tools arm embedded/10.3 2021.07/bin/../lib/gcc/arm-none-eabi/10.3.1/thumb/v7e-m/nofp\libgcc.a(_arm_cmpsf2.o)
__heap_base__                                     C:\Users\zerog\AppData\Local\Temp\APS_DIGITAL_CGG.elf.PLIgTd.ltrans0.ltrans.o
                                                  ./build/obj/chmemcore.o (symbol from plugin)
__heap_end__                                      C:\Users\zerog\AppData\Local\Temp\APS_DIGITAL_CGG.elf.PLIgTd.ltrans0.ltrans.o
                                                  ./build/obj/chmemcore.o (symbol from plugin)
__heap_init                                       ./build/obj/chmemheaps.o (symbol from plugin)
                                                  ./build/obj/chsys.o (symbol from plugin)
__hexdig                                          c:/chibistudio/tools/gnu tools arm embedded/10.3 2021.07/bin/../lib/gcc/arm-none-eabi/10.3.1/../../../../arm-none-eabi/lib/thumb/v7e-m/nofp\libg.a(lib_a-gdtoa-gethex.o)
                                                  c:/chibistudio/tools/gnu tools arm embedded/10.3 2021.07/bin/../lib/gcc/arm-none-eabi/10.3.1/../../../../arm-none-eabi/lib/thumb/v7e-m/nofp\libg.a(lib_a-gdtoa-hexnan.o)
__hexnan                                          c:/chibistudio/tools/gnu tools arm embedded/10.3 2021.07/bin/../lib/gcc/arm-none-eabi/10.3.1/../../../../arm-none-eabi/lib/thumb/v7e-m/nofp\libg.a(lib_a-gdtoa-hexnan.o)
                                                  c:/chibistudio/tools/gnu tools arm embedded/10.3 2021.07/bin/../lib/gcc/arm-none-eabi/10.3.1/../../../../arm-none-eabi/lib/thumb/v7e-m/nofp\libg.a(lib_a-strtod.o)
__hi0bits                                         c:/chibistudio/tools/gnu tools arm embedded/10.3 2021.07/bin/../lib/gcc/arm-none-eabi/10.3.1/../../../../arm-none-eabi/lib/thumb/v7e-m/nofp\libg.a(lib_a-mprec.o)
                                                  c:/chibistudio/tools/gnu tools arm embedded/10.3 2021.07/bin/../lib/gcc/arm-none-eabi/10.3.1/../../../../arm-none-eabi/lib/thumb/v7e-m/nofp\libg.a(lib_a-gdtoa-gethex.o)
__i2b                                             c:/chibistudio/tools/gnu tools arm embedded/10.3 2021.07/bin/../lib/gcc/arm-none-eabi/10.3.1/../../../../arm-none-eabi/lib/thumb/v7e-m/nofp\libg.a(lib_a-mprec.o)
                                                  c:/chibistudio/tools/gnu tools arm embedded/10.3 2021.07/bin/../lib/gcc/arm-none-eabi/10.3.1/../../../../arm-none-eabi/lib/thumb/v7e-m/nofp\libg.a(lib_a-strtod.o)
__ieee754_log                                     c:/chibistudio/tools/gnu tools arm embedded/10.3 2021.07/bin/../lib/gcc/arm-none-eabi/10.3.1/../../../../arm-none-eabi/lib/thumb/v7e-m/nofp\libm.a(lib_a-e_log.o)
                                                  c:/chibistudio/tools/gnu tools arm embedded/10.3 2021.07/bin/../lib/gcc/arm-none-eabi/10.3.1/../../../../arm-none-eabi/lib/thumb/v7e-m/nofp\libm.a(lib_a-w_log.o)
__ieee754_pow                                     c:/chibistudio/tools/gnu tools arm embedded/10.3 2021.07/bin/../lib/gcc/arm-none-eabi/10.3.1/../../../../arm-none-eabi/lib/thumb/v7e-m/nofp\libm.a(lib_a-e_pow.o)
                                                  c:/chibistudio/tools/gnu tools arm embedded/10.3 2021.07/bin/../lib/gcc/arm-none-eabi/10.3.1/../../../../arm-none-eabi/lib/thumb/v7e-m/nofp\libm.a(lib_a-w_pow.o)
__ieee754_sqrt                                    c:/chibistudio/tools/gnu tools arm embedded/10.3 2021.07/bin/../lib/gcc/arm-none-eabi/10.3.1/../../../../arm-none-eabi/lib/thumb/v7e-m/nofp\libm.a(lib_a-e_sqrt.o)
                                                  c:/chibistudio/tools/gnu tools arm embedded/10.3 2021.07/bin/../lib/gcc/arm-none-eabi/10.3.1/../../../../arm-none-eabi/lib/thumb/v7e-m/nofp\libm.a(lib_a-e_pow.o)
__init_array_base__                               ./build/obj/crt0_v7m.o
__init_array_end__                                ./build/obj/crt0_v7m.o
__init_ram_areas                                  C:\Users\zerog\AppData\Local\Temp\APS_DIGITAL_CGG.elf.PLIgTd.ltrans0.ltrans.o
                                                  ./build/obj/crt1.o (symbol from plugin)
                                                  ./build/obj/crt0_v7m.o
__late_init                                       C:\Users\zerog\AppData\Local\Temp\APS_DIGITAL_CGG.elf.PLIgTd.ltrans0.ltrans.o
                                                  ./build/obj/crt1.o (symbol from plugin)
                                                  ./build/obj/crt0_v7m.o
__ledf2                                           c:/chibistudio/tools/gnu tools arm embedded/10.3 2021.07/bin/../lib/gcc/arm-none-eabi/10.3.1/thumb/v7e-m/nofp\libgcc.a(_arm_cmpdf2.o)
__lesf2                                           c:/chibistudio/tools/gnu tools arm embedded/10.3 2021.07/bin/../lib/gcc/arm-none-eabi/10.3.1/thumb/v7e-m/nofp\libgcc.a(_arm_cmpsf2.o)
__lo0bits                                         c:/chibistudio/tools/gnu tools arm embedded/10.3 2021.07/bin/../lib/gcc/arm-none-eabi/10.3.1/../../../../arm-none-eabi/lib/thumb/v7e-m/nofp\libg.a(lib_a-mprec.o)
__locale_mb_cur_max                               c:/chibistudio/tools/gnu tools arm embedded/10.3 2021.07/bin/../lib/gcc/arm-none-eabi/10.3.1/../../../../arm-none-eabi/lib/thumb/v7e-m/nofp\libg.a(lib_a-locale.o)
                                                  c:/chibistudio/tools/gnu tools arm embedded/10.3 2021.07/bin/../lib/gcc/arm-none-eabi/10.3.1/../../../../arm-none-eabi/lib/thumb/v7e-m/nofp\libg.a(lib_a-fputwc.o)
__localeconv_l                                    c:/chibistudio/tools/gnu tools arm embedded/10.3 2021.07/bin/../lib/gcc/arm-none-eabi/10.3.1/../../../../arm-none-eabi/lib/thumb/v7e-m/nofp\libg.a(lib_a-localeconv.o)
__lock___arc4random_mutex                         c:/chibistudio/tools/gnu tools arm embedded/10.3 2021.07/bin/../lib/gcc/arm-none-eabi/10.3.1/../../../../arm-none-eabi/lib/thumb/v7e-m/nofp\libg.a(lib_a-lock.o)
__lock___at_quick_exit_mutex                      c:/chibistudio/tools/gnu tools arm embedded/10.3 2021.07/bin/../lib/gcc/arm-none-eabi/10.3.1/../../../../arm-none-eabi/lib/thumb/v7e-m/nofp\libg.a(lib_a-lock.o)
__lock___atexit_recursive_mutex                   c:/chibistudio/tools/gnu tools arm embedded/10.3 2021.07/bin/../lib/gcc/arm-none-eabi/10.3.1/../../../../arm-none-eabi/lib/thumb/v7e-m/nofp\libg.a(lib_a-lock.o)
__lock___dd_hash_mutex                            c:/chibistudio/tools/gnu tools arm embedded/10.3 2021.07/bin/../lib/gcc/arm-none-eabi/10.3.1/../../../../arm-none-eabi/lib/thumb/v7e-m/nofp\libg.a(lib_a-lock.o)
__lock___env_recursive_mutex                      c:/chibistudio/tools/gnu tools arm embedded/10.3 2021.07/bin/../lib/gcc/arm-none-eabi/10.3.1/../../../../arm-none-eabi/lib/thumb/v7e-m/nofp\libg.a(lib_a-lock.o)
__lock___malloc_recursive_mutex                   c:/chibistudio/tools/gnu tools arm embedded/10.3 2021.07/bin/../lib/gcc/arm-none-eabi/10.3.1/../../../../arm-none-eabi/lib/thumb/v7e-m/nofp\libg.a(lib_a-lock.o)
                                                  c:/chibistudio/tools/gnu tools arm embedded/10.3 2021.07/bin/../lib/gcc/arm-none-eabi/10.3.1/../../../../arm-none-eabi/lib/thumb/v7e-m/nofp\libg.a(lib_a-mlock.o)
__lock___sfp_recursive_mutex                      c:/chibistudio/tools/gnu tools arm embedded/10.3 2021.07/bin/../lib/gcc/arm-none-eabi/10.3.1/../../../../arm-none-eabi/lib/thumb/v7e-m/nofp\libg.a(lib_a-lock.o)
                                                  c:/chibistudio/tools/gnu tools arm embedded/10.3 2021.07/bin/../lib/gcc/arm-none-eabi/10.3.1/../../../../arm-none-eabi/lib/thumb/v7e-m/nofp\libg.a(lib_a-findfp.o)
__lock___sinit_recursive_mutex                    c:/chibistudio/tools/gnu tools arm embedded/10.3 2021.07/bin/../lib/gcc/arm-none-eabi/10.3.1/../../../../arm-none-eabi/lib/thumb/v7e-m/nofp\libg.a(lib_a-lock.o)
                                                  c:/chibistudio/tools/gnu tools arm embedded/10.3 2021.07/bin/../lib/gcc/arm-none-eabi/10.3.1/../../../../arm-none-eabi/lib/thumb/v7e-m/nofp\libg.a(lib_a-findfp.o)
__lock___tz_mutex                                 c:/chibistudio/tools/gnu tools arm embedded/10.3 2021.07/bin/../lib/gcc/arm-none-eabi/10.3.1/../../../../arm-none-eabi/lib/thumb/v7e-m/nofp\libg.a(lib_a-lock.o)
__lshift                                          c:/chibistudio/tools/gnu tools arm embedded/10.3 2021.07/bin/../lib/gcc/arm-none-eabi/10.3.1/../../../../arm-none-eabi/lib/thumb/v7e-m/nofp\libg.a(lib_a-mprec.o)
                                                  c:/chibistudio/tools/gnu tools arm embedded/10.3 2021.07/bin/../lib/gcc/arm-none-eabi/10.3.1/../../../../arm-none-eabi/lib/thumb/v7e-m/nofp\libg.a(lib_a-gdtoa-gethex.o)
                                                  c:/chibistudio/tools/gnu tools arm embedded/10.3 2021.07/bin/../lib/gcc/arm-none-eabi/10.3.1/../../../../arm-none-eabi/lib/thumb/v7e-m/nofp\libg.a(lib_a-strtod.o)
__ltdf2                                           c:/chibistudio/tools/gnu tools arm embedded/10.3 2021.07/bin/../lib/gcc/arm-none-eabi/10.3.1/thumb/v7e-m/nofp\libgcc.a(_arm_cmpdf2.o)
__ltsf2                                           c:/chibistudio/tools/gnu tools arm embedded/10.3 2021.07/bin/../lib/gcc/arm-none-eabi/10.3.1/thumb/v7e-m/nofp\libgcc.a(_arm_cmpsf2.o)
__main_stack_base__                               ./build/obj/crt0_v7m.o
__main_stack_end__                                ./build/obj/vectors.o
                                                  ./build/obj/crt0_v7m.o
__malloc_av_                                      c:/chibistudio/tools/gnu tools arm embedded/10.3 2021.07/bin/../lib/gcc/arm-none-eabi/10.3.1/../../../../arm-none-eabi/lib/thumb/v7e-m/nofp\libg.a(lib_a-mallocr.o)
                                                  c:/chibistudio/tools/gnu tools arm embedded/10.3 2021.07/bin/../lib/gcc/arm-none-eabi/10.3.1/../../../../arm-none-eabi/lib/thumb/v7e-m/nofp\libg.a(lib_a-reallocr.o)
                                                  c:/chibistudio/tools/gnu tools arm embedded/10.3 2021.07/bin/../lib/gcc/arm-none-eabi/10.3.1/../../../../arm-none-eabi/lib/thumb/v7e-m/nofp\libg.a(lib_a-freer.o)
__malloc_current_mallinfo                         c:/chibistudio/tools/gnu tools arm embedded/10.3 2021.07/bin/../lib/gcc/arm-none-eabi/10.3.1/../../../../arm-none-eabi/lib/thumb/v7e-m/nofp\libg.a(lib_a-mallocr.o)
                                                  c:/chibistudio/tools/gnu tools arm embedded/10.3 2021.07/bin/../lib/gcc/arm-none-eabi/10.3.1/../../../../arm-none-eabi/lib/thumb/v7e-m/nofp\libg.a(lib_a-freer.o)
__malloc_lock                                     c:/chibistudio/tools/gnu tools arm embedded/10.3 2021.07/bin/../lib/gcc/arm-none-eabi/10.3.1/../../../../arm-none-eabi/lib/thumb/v7e-m/nofp\libg.a(lib_a-mlock.o)
                                                  c:/chibistudio/tools/gnu tools arm embedded/10.3 2021.07/bin/../lib/gcc/arm-none-eabi/10.3.1/../../../../arm-none-eabi/lib/thumb/v7e-m/nofp\libg.a(lib_a-reallocr.o)
                                                  c:/chibistudio/tools/gnu tools arm embedded/10.3 2021.07/bin/../lib/gcc/arm-none-eabi/10.3.1/../../../../arm-none-eabi/lib/thumb/v7e-m/nofp\libg.a(lib_a-freer.o)
                                                  c:/chibistudio/tools/gnu tools arm embedded/10.3 2021.07/bin/../lib/gcc/arm-none-eabi/10.3.1/../../../../arm-none-eabi/lib/thumb/v7e-m/nofp\libg.a(lib_a-mallocr.o)
__malloc_max_sbrked_mem                           c:/chibistudio/tools/gnu tools arm embedded/10.3 2021.07/bin/../lib/gcc/arm-none-eabi/10.3.1/../../../../arm-none-eabi/lib/thumb/v7e-m/nofp\libg.a(lib_a-mallocr.o)
__malloc_max_total_mem                            c:/chibistudio/tools/gnu tools arm embedded/10.3 2021.07/bin/../lib/gcc/arm-none-eabi/10.3.1/../../../../arm-none-eabi/lib/thumb/v7e-m/nofp\libg.a(lib_a-mallocr.o)
__malloc_sbrk_base                                c:/chibistudio/tools/gnu tools arm embedded/10.3 2021.07/bin/../lib/gcc/arm-none-eabi/10.3.1/../../../../arm-none-eabi/lib/thumb/v7e-m/nofp\libg.a(lib_a-mallocr.o)
                                                  c:/chibistudio/tools/gnu tools arm embedded/10.3 2021.07/bin/../lib/gcc/arm-none-eabi/10.3.1/../../../../arm-none-eabi/lib/thumb/v7e-m/nofp\libg.a(lib_a-freer.o)
__malloc_top_pad                                  c:/chibistudio/tools/gnu tools arm embedded/10.3 2021.07/bin/../lib/gcc/arm-none-eabi/10.3.1/../../../../arm-none-eabi/lib/thumb/v7e-m/nofp\libg.a(lib_a-mallocr.o)
                                                  c:/chibistudio/tools/gnu tools arm embedded/10.3 2021.07/bin/../lib/gcc/arm-none-eabi/10.3.1/../../../../arm-none-eabi/lib/thumb/v7e-m/nofp\libg.a(lib_a-freer.o)
__malloc_trim_threshold                           c:/chibistudio/tools/gnu tools arm embedded/10.3 2021.07/bin/../lib/gcc/arm-none-eabi/10.3.1/../../../../arm-none-eabi/lib/thumb/v7e-m/nofp\libg.a(lib_a-mallocr.o)
                                                  c:/chibistudio/tools/gnu tools arm embedded/10.3 2021.07/bin/../lib/gcc/arm-none-eabi/10.3.1/../../../../arm-none-eabi/lib/thumb/v7e-m/nofp\libg.a(lib_a-freer.o)
__malloc_unlock                                   c:/chibistudio/tools/gnu tools arm embedded/10.3 2021.07/bin/../lib/gcc/arm-none-eabi/10.3.1/../../../../arm-none-eabi/lib/thumb/v7e-m/nofp\libg.a(lib_a-mlock.o)
                                                  c:/chibistudio/tools/gnu tools arm embedded/10.3 2021.07/bin/../lib/gcc/arm-none-eabi/10.3.1/../../../../arm-none-eabi/lib/thumb/v7e-m/nofp\libg.a(lib_a-reallocr.o)
                                                  c:/chibistudio/tools/gnu tools arm embedded/10.3 2021.07/bin/../lib/gcc/arm-none-eabi/10.3.1/../../../../arm-none-eabi/lib/thumb/v7e-m/nofp\libg.a(lib_a-freer.o)
                                                  c:/chibistudio/tools/gnu tools arm embedded/10.3 2021.07/bin/../lib/gcc/arm-none-eabi/10.3.1/../../../../arm-none-eabi/lib/thumb/v7e-m/nofp\libg.a(lib_a-mallocr.o)
__match                                           c:/chibistudio/tools/gnu tools arm embedded/10.3 2021.07/bin/../lib/gcc/arm-none-eabi/10.3.1/../../../../arm-none-eabi/lib/thumb/v7e-m/nofp\libg.a(lib_a-gdtoa-hexnan.o)
                                                  c:/chibistudio/tools/gnu tools arm embedded/10.3 2021.07/bin/../lib/gcc/arm-none-eabi/10.3.1/../../../../arm-none-eabi/lib/thumb/v7e-m/nofp\libg.a(lib_a-strtod.o)
__math_check_oflow                                c:/chibistudio/tools/gnu tools arm embedded/10.3 2021.07/bin/../lib/gcc/arm-none-eabi/10.3.1/../../../../arm-none-eabi/lib/thumb/v7e-m/nofp\libm.a(lib_a-math_err.o)
__math_check_uflow                                c:/chibistudio/tools/gnu tools arm embedded/10.3 2021.07/bin/../lib/gcc/arm-none-eabi/10.3.1/../../../../arm-none-eabi/lib/thumb/v7e-m/nofp\libm.a(lib_a-math_err.o)
__math_divzero                                    c:/chibistudio/tools/gnu tools arm embedded/10.3 2021.07/bin/../lib/gcc/arm-none-eabi/10.3.1/../../../../arm-none-eabi/lib/thumb/v7e-m/nofp\libm.a(lib_a-math_err.o)
__math_invalid                                    c:/chibistudio/tools/gnu tools arm embedded/10.3 2021.07/bin/../lib/gcc/arm-none-eabi/10.3.1/../../../../arm-none-eabi/lib/thumb/v7e-m/nofp\libm.a(lib_a-math_err.o)
__math_may_uflow                                  c:/chibistudio/tools/gnu tools arm embedded/10.3 2021.07/bin/../lib/gcc/arm-none-eabi/10.3.1/../../../../arm-none-eabi/lib/thumb/v7e-m/nofp\libm.a(lib_a-math_err.o)
__math_oflow                                      c:/chibistudio/tools/gnu tools arm embedded/10.3 2021.07/bin/../lib/gcc/arm-none-eabi/10.3.1/../../../../arm-none-eabi/lib/thumb/v7e-m/nofp\libm.a(lib_a-math_err.o)
                                                  c:/chibistudio/tools/gnu tools arm embedded/10.3 2021.07/bin/../lib/gcc/arm-none-eabi/10.3.1/../../../../arm-none-eabi/lib/thumb/v7e-m/nofp\libm.a(lib_a-e_pow.o)
__math_uflow                                      c:/chibistudio/tools/gnu tools arm embedded/10.3 2021.07/bin/../lib/gcc/arm-none-eabi/10.3.1/../../../../arm-none-eabi/lib/thumb/v7e-m/nofp\libm.a(lib_a-math_err.o)
                                                  c:/chibistudio/tools/gnu tools arm embedded/10.3 2021.07/bin/../lib/gcc/arm-none-eabi/10.3.1/../../../../arm-none-eabi/lib/thumb/v7e-m/nofp\libm.a(lib_a-e_pow.o)
__mcmp                                            c:/chibistudio/tools/gnu tools arm embedded/10.3 2021.07/bin/../lib/gcc/arm-none-eabi/10.3.1/../../../../arm-none-eabi/lib/thumb/v7e-m/nofp\libg.a(lib_a-mprec.o)
                                                  c:/chibistudio/tools/gnu tools arm embedded/10.3 2021.07/bin/../lib/gcc/arm-none-eabi/10.3.1/../../../../arm-none-eabi/lib/thumb/v7e-m/nofp\libg.a(lib_a-strtod.o)
__mdiff                                           c:/chibistudio/tools/gnu tools arm embedded/10.3 2021.07/bin/../lib/gcc/arm-none-eabi/10.3.1/../../../../arm-none-eabi/lib/thumb/v7e-m/nofp\libg.a(lib_a-mprec.o)
                                                  c:/chibistudio/tools/gnu tools arm embedded/10.3 2021.07/bin/../lib/gcc/arm-none-eabi/10.3.1/../../../../arm-none-eabi/lib/thumb/v7e-m/nofp\libg.a(lib_a-strtod.o)
__mprec_bigtens                                   c:/chibistudio/tools/gnu tools arm embedded/10.3 2021.07/bin/../lib/gcc/arm-none-eabi/10.3.1/../../../../arm-none-eabi/lib/thumb/v7e-m/nofp\libg.a(lib_a-mprec.o)
                                                  c:/chibistudio/tools/gnu tools arm embedded/10.3 2021.07/bin/../lib/gcc/arm-none-eabi/10.3.1/../../../../arm-none-eabi/lib/thumb/v7e-m/nofp\libg.a(lib_a-strtod.o)
__mprec_tens                                      c:/chibistudio/tools/gnu tools arm embedded/10.3 2021.07/bin/../lib/gcc/arm-none-eabi/10.3.1/../../../../arm-none-eabi/lib/thumb/v7e-m/nofp\libg.a(lib_a-mprec.o)
                                                  c:/chibistudio/tools/gnu tools arm embedded/10.3 2021.07/bin/../lib/gcc/arm-none-eabi/10.3.1/../../../../arm-none-eabi/lib/thumb/v7e-m/nofp\libg.a(lib_a-strtod.o)
__mprec_tinytens                                  c:/chibistudio/tools/gnu tools arm embedded/10.3 2021.07/bin/../lib/gcc/arm-none-eabi/10.3.1/../../../../arm-none-eabi/lib/thumb/v7e-m/nofp\libg.a(lib_a-mprec.o)
__muldf3                                          c:/chibistudio/tools/gnu tools arm embedded/10.3 2021.07/bin/../lib/gcc/arm-none-eabi/10.3.1/thumb/v7e-m/nofp\libgcc.a(_arm_muldivdf3.o)
                                                  c:/chibistudio/tools/gnu tools arm embedded/10.3 2021.07/bin/../lib/gcc/arm-none-eabi/10.3.1/thumb/v7e-m/nofp\libgcc.a(_arm_muldf3.o)
__mulsf3                                          c:/chibistudio/tools/gnu tools arm embedded/10.3 2021.07/bin/../lib/gcc/arm-none-eabi/10.3.1/thumb/v7e-m/nofp\libgcc.a(_arm_mulsf3.o)
__multadd                                         c:/chibistudio/tools/gnu tools arm embedded/10.3 2021.07/bin/../lib/gcc/arm-none-eabi/10.3.1/../../../../arm-none-eabi/lib/thumb/v7e-m/nofp\libg.a(lib_a-mprec.o)
__multiply                                        c:/chibistudio/tools/gnu tools arm embedded/10.3 2021.07/bin/../lib/gcc/arm-none-eabi/10.3.1/../../../../arm-none-eabi/lib/thumb/v7e-m/nofp\libg.a(lib_a-mprec.o)
                                                  c:/chibistudio/tools/gnu tools arm embedded/10.3 2021.07/bin/../lib/gcc/arm-none-eabi/10.3.1/../../../../arm-none-eabi/lib/thumb/v7e-m/nofp\libg.a(lib_a-strtod.o)
__nedf2                                           c:/chibistudio/tools/gnu tools arm embedded/10.3 2021.07/bin/../lib/gcc/arm-none-eabi/10.3.1/thumb/v7e-m/nofp\libgcc.a(_arm_cmpdf2.o)
__nesf2                                           c:/chibistudio/tools/gnu tools arm embedded/10.3 2021.07/bin/../lib/gcc/arm-none-eabi/10.3.1/thumb/v7e-m/nofp\libgcc.a(_arm_cmpsf2.o)
__numeric_load_locale                             c:/chibistudio/tools/gnu tools arm embedded/10.3 2021.07/bin/../lib/gcc/arm-none-eabi/10.3.1/../../../../arm-none-eabi/lib/thumb/v7e-m/nofp\libg.a(lib_a-lnumeric.o)
__port_schedule_next                              C:\Users\zerog\AppData\Local\Temp\APS_DIGITAL_CGG.elf.PLIgTd.ltrans0.ltrans.o
                                                  ./build/obj/chcore.o (symbol from plugin)
                                                  ./build/obj/chcoreasm.o
__port_thread_start                               ./build/obj/chcoreasm.o
                                                  C:\Users\zerog\AppData\Local\Temp\APS_DIGITAL_CGG.elf.PLIgTd.ltrans0.ltrans.o
                                                  ./build/obj/chthreads.o (symbol from plugin)
__pow5mult                                        c:/chibistudio/tools/gnu tools arm embedded/10.3 2021.07/bin/../lib/gcc/arm-none-eabi/10.3.1/../../../../arm-none-eabi/lib/thumb/v7e-m/nofp\libg.a(lib_a-mprec.o)
                                                  c:/chibistudio/tools/gnu tools arm embedded/10.3 2021.07/bin/../lib/gcc/arm-none-eabi/10.3.1/../../../../arm-none-eabi/lib/thumb/v7e-m/nofp\libg.a(lib_a-strtod.o)
__process_stack_base__                            ./build/obj/crt0_v7m.o
__process_stack_end__                             ./build/obj/crt0_v7m.o
__ram0_clear__                                    C:\Users\zerog\AppData\Local\Temp\APS_DIGITAL_CGG.elf.PLIgTd.ltrans0.ltrans.o
                                                  ./build/obj/crt1.o (symbol from plugin)
__ram0_init__                                     C:\Users\zerog\AppData\Local\Temp\APS_DIGITAL_CGG.elf.PLIgTd.ltrans0.ltrans.o
                                                  ./build/obj/crt1.o (symbol from plugin)
__ram0_init_text__                                C:\Users\zerog\AppData\Local\Temp\APS_DIGITAL_CGG.elf.PLIgTd.ltrans0.ltrans.o
                                                  ./build/obj/crt1.o (symbol from plugin)
__ram0_noinit__                                   C:\Users\zerog\AppData\Local\Temp\APS_DIGITAL_CGG.elf.PLIgTd.ltrans0.ltrans.o
                                                  ./build/obj/crt1.o (symbol from plugin)
__ram1_clear__                                    C:\Users\zerog\AppData\Local\Temp\APS_DIGITAL_CGG.elf.PLIgTd.ltrans0.ltrans.o
                                                  ./build/obj/crt1.o (symbol from plugin)
__ram1_init__                                     C:\Users\zerog\AppData\Local\Temp\APS_DIGITAL_CGG.elf.PLIgTd.ltrans0.ltrans.o
                                                  ./build/obj/crt1.o (symbol from plugin)
__ram1_init_text__                                C:\Users\zerog\AppData\Local\Temp\APS_DIGITAL_CGG.elf.PLIgTd.ltrans0.ltrans.o
                                                  ./build/obj/crt1.o (symbol from plugin)
__ram1_noinit__                                   C:\Users\zerog\AppData\Local\Temp\APS_DIGITAL_CGG.elf.PLIgTd.ltrans0.ltrans.o
                                                  ./build/obj/crt1.o (symbol from plugin)
__ram2_clear__                                    C:\Users\zerog\AppData\Local\Temp\APS_DIGITAL_CGG.elf.PLIgTd.ltrans0.ltrans.o
                                                  ./build/obj/crt1.o (symbol from plugin)
__ram2_init__                                     C:\Users\zerog\AppData\Local\Temp\APS_DIGITAL_CGG.elf.PLIgTd.ltrans0.ltrans.o
                                                  ./build/obj/crt1.o (symbol from plugin)
__ram2_init_text__                                C:\Users\zerog\AppData\Local\Temp\APS_DIGITAL_CGG.elf.PLIgTd.ltrans0.ltrans.o
                                                  ./build/obj/crt1.o (symbol from plugin)
__ram2_noinit__                                   C:\Users\zerog\AppData\Local\Temp\APS_DIGITAL_CGG.elf.PLIgTd.ltrans0.ltrans.o
                                                  ./build/obj/crt1.o (symbol from plugin)
__ram3_clear__                                    C:\Users\zerog\AppData\Local\Temp\APS_DIGITAL_CGG.elf.PLIgTd.ltrans0.ltrans.o
                                                  ./build/obj/crt1.o (symbol from plugin)
__ram3_init__                                     C:\Users\zerog\AppData\Local\Temp\APS_DIGITAL_CGG.elf.PLIgTd.ltrans0.ltrans.o
                                                  ./build/obj/crt1.o (symbol from plugin)
__ram3_init_text__                                C:\Users\zerog\AppData\Local\Temp\APS_DIGITAL_CGG.elf.PLIgTd.ltrans0.ltrans.o
                                                  ./build/obj/crt1.o (symbol from plugin)
__ram3_noinit__                                   C:\Users\zerog\AppData\Local\Temp\APS_DIGITAL_CGG.elf.PLIgTd.ltrans0.ltrans.o
                                                  ./build/obj/crt1.o (symbol from plugin)
__ram4_clear__                                    C:\Users\zerog\AppData\Local\Temp\APS_DIGITAL_CGG.elf.PLIgTd.ltrans0.ltrans.o
                                                  ./build/obj/crt1.o (symbol from plugin)
__ram4_init__                                     C:\Users\zerog\AppData\Local\Temp\APS_DIGITAL_CGG.elf.PLIgTd.ltrans0.ltrans.o
                                                  ./build/obj/crt1.o (symbol from plugin)
__ram4_init_text__                                C:\Users\zerog\AppData\Local\Temp\APS_DIGITAL_CGG.elf.PLIgTd.ltrans0.ltrans.o
                                                  ./build/obj/crt1.o (symbol from plugin)
__ram4_noinit__                                   C:\Users\zerog\AppData\Local\Temp\APS_DIGITAL_CGG.elf.PLIgTd.ltrans0.ltrans.o
                                                  ./build/obj/crt1.o (symbol from plugin)
__ram5_clear__                                    C:\Users\zerog\AppData\Local\Temp\APS_DIGITAL_CGG.elf.PLIgTd.ltrans0.ltrans.o
                                                  ./build/obj/crt1.o (symbol from plugin)
__ram5_init__                                     C:\Users\zerog\AppData\Local\Temp\APS_DIGITAL_CGG.elf.PLIgTd.ltrans0.ltrans.o
                                                  ./build/obj/crt1.o (symbol from plugin)
__ram5_init_text__                                C:\Users\zerog\AppData\Local\Temp\APS_DIGITAL_CGG.elf.PLIgTd.ltrans0.ltrans.o
                                                  ./build/obj/crt1.o (symbol from plugin)
__ram5_noinit__                                   C:\Users\zerog\AppData\Local\Temp\APS_DIGITAL_CGG.elf.PLIgTd.ltrans0.ltrans.o
                                                  ./build/obj/crt1.o (symbol from plugin)
__ram6_clear__                                    C:\Users\zerog\AppData\Local\Temp\APS_DIGITAL_CGG.elf.PLIgTd.ltrans0.ltrans.o
                                                  ./build/obj/crt1.o (symbol from plugin)
__ram6_init__                                     C:\Users\zerog\AppData\Local\Temp\APS_DIGITAL_CGG.elf.PLIgTd.ltrans0.ltrans.o
                                                  ./build/obj/crt1.o (symbol from plugin)
__ram6_init_text__                                C:\Users\zerog\AppData\Local\Temp\APS_DIGITAL_CGG.elf.PLIgTd.ltrans0.ltrans.o
                                                  ./build/obj/crt1.o (symbol from plugin)
__ram6_noinit__                                   C:\Users\zerog\AppData\Local\Temp\APS_DIGITAL_CGG.elf.PLIgTd.ltrans0.ltrans.o
                                                  ./build/obj/crt1.o (symbol from plugin)
__ram7_clear__                                    C:\Users\zerog\AppData\Local\Temp\APS_DIGITAL_CGG.elf.PLIgTd.ltrans0.ltrans.o
                                                  ./build/obj/crt1.o (symbol from plugin)
__ram7_init__                                     C:\Users\zerog\AppData\Local\Temp\APS_DIGITAL_CGG.elf.PLIgTd.ltrans0.ltrans.o
                                                  ./build/obj/crt1.o (symbol from plugin)
__ram7_init_text__                                C:\Users\zerog\AppData\Local\Temp\APS_DIGITAL_CGG.elf.PLIgTd.ltrans0.ltrans.o
                                                  ./build/obj/crt1.o (symbol from plugin)
__ram7_noinit__                                   C:\Users\zerog\AppData\Local\Temp\APS_DIGITAL_CGG.elf.PLIgTd.ltrans0.ltrans.o
                                                  ./build/obj/crt1.o (symbol from plugin)
__ratio                                           c:/chibistudio/tools/gnu tools arm embedded/10.3 2021.07/bin/../lib/gcc/arm-none-eabi/10.3.1/../../../../arm-none-eabi/lib/thumb/v7e-m/nofp\libg.a(lib_a-mprec.o)
                                                  c:/chibistudio/tools/gnu tools arm embedded/10.3 2021.07/bin/../lib/gcc/arm-none-eabi/10.3.1/../../../../arm-none-eabi/lib/thumb/v7e-m/nofp\libg.a(lib_a-strtod.o)
__retarget_lock_acquire                           c:/chibistudio/tools/gnu tools arm embedded/10.3 2021.07/bin/../lib/gcc/arm-none-eabi/10.3.1/../../../../arm-none-eabi/lib/thumb/v7e-m/nofp\libg.a(lib_a-lock.o)
__retarget_lock_acquire_recursive                 c:/chibistudio/tools/gnu tools arm embedded/10.3 2021.07/bin/../lib/gcc/arm-none-eabi/10.3.1/../../../../arm-none-eabi/lib/thumb/v7e-m/nofp\libg.a(lib_a-lock.o)
                                                  c:/chibistudio/tools/gnu tools arm embedded/10.3 2021.07/bin/../lib/gcc/arm-none-eabi/10.3.1/../../../../arm-none-eabi/lib/thumb/v7e-m/nofp\libg.a(lib_a-fclose.o)
                                                  c:/chibistudio/tools/gnu tools arm embedded/10.3 2021.07/bin/../lib/gcc/arm-none-eabi/10.3.1/../../../../arm-none-eabi/lib/thumb/v7e-m/nofp\libg.a(lib_a-fputwc.o)
                                                  c:/chibistudio/tools/gnu tools arm embedded/10.3 2021.07/bin/../lib/gcc/arm-none-eabi/10.3.1/../../../../arm-none-eabi/lib/thumb/v7e-m/nofp\libg.a(lib_a-findfp.o)
                                                  c:/chibistudio/tools/gnu tools arm embedded/10.3 2021.07/bin/../lib/gcc/arm-none-eabi/10.3.1/../../../../arm-none-eabi/lib/thumb/v7e-m/nofp\libg.a(lib_a-fflush.o)
                                                  c:/chibistudio/tools/gnu tools arm embedded/10.3 2021.07/bin/../lib/gcc/arm-none-eabi/10.3.1/../../../../arm-none-eabi/lib/thumb/v7e-m/nofp\libg.a(lib_a-vfiprintf.o)
                                                  c:/chibistudio/tools/gnu tools arm embedded/10.3 2021.07/bin/../lib/gcc/arm-none-eabi/10.3.1/../../../../arm-none-eabi/lib/thumb/v7e-m/nofp\libg.a(lib_a-mlock.o)
__retarget_lock_close                             c:/chibistudio/tools/gnu tools arm embedded/10.3 2021.07/bin/../lib/gcc/arm-none-eabi/10.3.1/../../../../arm-none-eabi/lib/thumb/v7e-m/nofp\libg.a(lib_a-lock.o)
__retarget_lock_close_recursive                   c:/chibistudio/tools/gnu tools arm embedded/10.3 2021.07/bin/../lib/gcc/arm-none-eabi/10.3.1/../../../../arm-none-eabi/lib/thumb/v7e-m/nofp\libg.a(lib_a-lock.o)
                                                  c:/chibistudio/tools/gnu tools arm embedded/10.3 2021.07/bin/../lib/gcc/arm-none-eabi/10.3.1/../../../../arm-none-eabi/lib/thumb/v7e-m/nofp\libg.a(lib_a-fclose.o)
                                                  c:/chibistudio/tools/gnu tools arm embedded/10.3 2021.07/bin/../lib/gcc/arm-none-eabi/10.3.1/../../../../arm-none-eabi/lib/thumb/v7e-m/nofp\libg.a(lib_a-vfiprintf.o)
__retarget_lock_init                              c:/chibistudio/tools/gnu tools arm embedded/10.3 2021.07/bin/../lib/gcc/arm-none-eabi/10.3.1/../../../../arm-none-eabi/lib/thumb/v7e-m/nofp\libg.a(lib_a-lock.o)
__retarget_lock_init_recursive                    c:/chibistudio/tools/gnu tools arm embedded/10.3 2021.07/bin/../lib/gcc/arm-none-eabi/10.3.1/../../../../arm-none-eabi/lib/thumb/v7e-m/nofp\libg.a(lib_a-lock.o)
                                                  c:/chibistudio/tools/gnu tools arm embedded/10.3 2021.07/bin/../lib/gcc/arm-none-eabi/10.3.1/../../../../arm-none-eabi/lib/thumb/v7e-m/nofp\libg.a(lib_a-findfp.o)
                                                  c:/chibistudio/tools/gnu tools arm embedded/10.3 2021.07/bin/../lib/gcc/arm-none-eabi/10.3.1/../../../../arm-none-eabi/lib/thumb/v7e-m/nofp\libg.a(lib_a-vfiprintf.o)
__retarget_lock_release                           c:/chibistudio/tools/gnu tools arm embedded/10.3 2021.07/bin/../lib/gcc/arm-none-eabi/10.3.1/../../../../arm-none-eabi/lib/thumb/v7e-m/nofp\libg.a(lib_a-lock.o)
__retarget_lock_release_recursive                 c:/chibistudio/tools/gnu tools arm embedded/10.3 2021.07/bin/../lib/gcc/arm-none-eabi/10.3.1/../../../../arm-none-eabi/lib/thumb/v7e-m/nofp\libg.a(lib_a-lock.o)
                                                  c:/chibistudio/tools/gnu tools arm embedded/10.3 2021.07/bin/../lib/gcc/arm-none-eabi/10.3.1/../../../../arm-none-eabi/lib/thumb/v7e-m/nofp\libg.a(lib_a-fclose.o)
                                                  c:/chibistudio/tools/gnu tools arm embedded/10.3 2021.07/bin/../lib/gcc/arm-none-eabi/10.3.1/../../../../arm-none-eabi/lib/thumb/v7e-m/nofp\libg.a(lib_a-fputwc.o)
                                                  c:/chibistudio/tools/gnu tools arm embedded/10.3 2021.07/bin/../lib/gcc/arm-none-eabi/10.3.1/../../../../arm-none-eabi/lib/thumb/v7e-m/nofp\libg.a(lib_a-findfp.o)
                                                  c:/chibistudio/tools/gnu tools arm embedded/10.3 2021.07/bin/../lib/gcc/arm-none-eabi/10.3.1/../../../../arm-none-eabi/lib/thumb/v7e-m/nofp\libg.a(lib_a-fflush.o)
                                                  c:/chibistudio/tools/gnu tools arm embedded/10.3 2021.07/bin/../lib/gcc/arm-none-eabi/10.3.1/../../../../arm-none-eabi/lib/thumb/v7e-m/nofp\libg.a(lib_a-vfiprintf.o)
                                                  c:/chibistudio/tools/gnu tools arm embedded/10.3 2021.07/bin/../lib/gcc/arm-none-eabi/10.3.1/../../../../arm-none-eabi/lib/thumb/v7e-m/nofp\libg.a(lib_a-mlock.o)
__retarget_lock_try_acquire                       c:/chibistudio/tools/gnu tools arm embedded/10.3 2021.07/bin/../lib/gcc/arm-none-eabi/10.3.1/../../../../arm-none-eabi/lib/thumb/v7e-m/nofp\libg.a(lib_a-lock.o)
__retarget_lock_try_acquire_recursive             c:/chibistudio/tools/gnu tools arm embedded/10.3 2021.07/bin/../lib/gcc/arm-none-eabi/10.3.1/../../../../arm-none-eabi/lib/thumb/v7e-m/nofp\libg.a(lib_a-lock.o)
__s2b                                             c:/chibistudio/tools/gnu tools arm embedded/10.3 2021.07/bin/../lib/gcc/arm-none-eabi/10.3.1/../../../../arm-none-eabi/lib/thumb/v7e-m/nofp\libg.a(lib_a-mprec.o)
                                                  c:/chibistudio/tools/gnu tools arm embedded/10.3 2021.07/bin/../lib/gcc/arm-none-eabi/10.3.1/../../../../arm-none-eabi/lib/thumb/v7e-m/nofp\libg.a(lib_a-strtod.o)
__sclose                                          c:/chibistudio/tools/gnu tools arm embedded/10.3 2021.07/bin/../lib/gcc/arm-none-eabi/10.3.1/../../../../arm-none-eabi/lib/thumb/v7e-m/nofp\libg.a(lib_a-stdio.o)
                                                  c:/chibistudio/tools/gnu tools arm embedded/10.3 2021.07/bin/../lib/gcc/arm-none-eabi/10.3.1/../../../../arm-none-eabi/lib/thumb/v7e-m/nofp\libg.a(lib_a-findfp.o)
__seofread                                        c:/chibistudio/tools/gnu tools arm embedded/10.3 2021.07/bin/../lib/gcc/arm-none-eabi/10.3.1/../../../../arm-none-eabi/lib/thumb/v7e-m/nofp\libg.a(lib_a-stdio.o)
__sflush_r                                        c:/chibistudio/tools/gnu tools arm embedded/10.3 2021.07/bin/../lib/gcc/arm-none-eabi/10.3.1/../../../../arm-none-eabi/lib/thumb/v7e-m/nofp\libg.a(lib_a-fflush.o)
                                                  c:/chibistudio/tools/gnu tools arm embedded/10.3 2021.07/bin/../lib/gcc/arm-none-eabi/10.3.1/../../../../arm-none-eabi/lib/thumb/v7e-m/nofp\libg.a(lib_a-fclose.o)
__sfmoreglue                                      c:/chibistudio/tools/gnu tools arm embedded/10.3 2021.07/bin/../lib/gcc/arm-none-eabi/10.3.1/../../../../arm-none-eabi/lib/thumb/v7e-m/nofp\libg.a(lib_a-findfp.o)
__sfp                                             c:/chibistudio/tools/gnu tools arm embedded/10.3 2021.07/bin/../lib/gcc/arm-none-eabi/10.3.1/../../../../arm-none-eabi/lib/thumb/v7e-m/nofp\libg.a(lib_a-findfp.o)
__sfp_lock_acquire                                c:/chibistudio/tools/gnu tools arm embedded/10.3 2021.07/bin/../lib/gcc/arm-none-eabi/10.3.1/../../../../arm-none-eabi/lib/thumb/v7e-m/nofp\libg.a(lib_a-findfp.o)
                                                  c:/chibistudio/tools/gnu tools arm embedded/10.3 2021.07/bin/../lib/gcc/arm-none-eabi/10.3.1/../../../../arm-none-eabi/lib/thumb/v7e-m/nofp\libg.a(lib_a-fclose.o)
__sfp_lock_release                                c:/chibistudio/tools/gnu tools arm embedded/10.3 2021.07/bin/../lib/gcc/arm-none-eabi/10.3.1/../../../../arm-none-eabi/lib/thumb/v7e-m/nofp\libg.a(lib_a-findfp.o)
                                                  c:/chibistudio/tools/gnu tools arm embedded/10.3 2021.07/bin/../lib/gcc/arm-none-eabi/10.3.1/../../../../arm-none-eabi/lib/thumb/v7e-m/nofp\libg.a(lib_a-fclose.o)
__sfvwrite_r                                      c:/chibistudio/tools/gnu tools arm embedded/10.3 2021.07/bin/../lib/gcc/arm-none-eabi/10.3.1/../../../../arm-none-eabi/lib/thumb/v7e-m/nofp\libg.a(lib_a-fvwrite.o)
                                                  c:/chibistudio/tools/gnu tools arm embedded/10.3 2021.07/bin/../lib/gcc/arm-none-eabi/10.3.1/../../../../arm-none-eabi/lib/thumb/v7e-m/nofp\libg.a(lib_a-vfiprintf.o)
__sigtramp                                        c:/chibistudio/tools/gnu tools arm embedded/10.3 2021.07/bin/../lib/gcc/arm-none-eabi/10.3.1/../../../../arm-none-eabi/lib/thumb/v7e-m/nofp\libg.a(lib_a-signal.o)
__sigtramp_r                                      c:/chibistudio/tools/gnu tools arm embedded/10.3 2021.07/bin/../lib/gcc/arm-none-eabi/10.3.1/../../../../arm-none-eabi/lib/thumb/v7e-m/nofp\libg.a(lib_a-signal.o)
__sinit                                           c:/chibistudio/tools/gnu tools arm embedded/10.3 2021.07/bin/../lib/gcc/arm-none-eabi/10.3.1/../../../../arm-none-eabi/lib/thumb/v7e-m/nofp\libg.a(lib_a-findfp.o)
                                                  c:/chibistudio/tools/gnu tools arm embedded/10.3 2021.07/bin/../lib/gcc/arm-none-eabi/10.3.1/../../../../arm-none-eabi/lib/thumb/v7e-m/nofp\libg.a(lib_a-fclose.o)
                                                  c:/chibistudio/tools/gnu tools arm embedded/10.3 2021.07/bin/../lib/gcc/arm-none-eabi/10.3.1/../../../../arm-none-eabi/lib/thumb/v7e-m/nofp\libg.a(lib_a-wbuf.o)
                                                  c:/chibistudio/tools/gnu tools arm embedded/10.3 2021.07/bin/../lib/gcc/arm-none-eabi/10.3.1/../../../../arm-none-eabi/lib/thumb/v7e-m/nofp\libg.a(lib_a-fputwc.o)
                                                  c:/chibistudio/tools/gnu tools arm embedded/10.3 2021.07/bin/../lib/gcc/arm-none-eabi/10.3.1/../../../../arm-none-eabi/lib/thumb/v7e-m/nofp\libg.a(lib_a-fflush.o)
                                                  c:/chibistudio/tools/gnu tools arm embedded/10.3 2021.07/bin/../lib/gcc/arm-none-eabi/10.3.1/../../../../arm-none-eabi/lib/thumb/v7e-m/nofp\libg.a(lib_a-wsetup.o)
                                                  c:/chibistudio/tools/gnu tools arm embedded/10.3 2021.07/bin/../lib/gcc/arm-none-eabi/10.3.1/../../../../arm-none-eabi/lib/thumb/v7e-m/nofp\libg.a(lib_a-vfiprintf.o)
__sinit_lock_acquire                              c:/chibistudio/tools/gnu tools arm embedded/10.3 2021.07/bin/../lib/gcc/arm-none-eabi/10.3.1/../../../../arm-none-eabi/lib/thumb/v7e-m/nofp\libg.a(lib_a-findfp.o)
__sinit_lock_release                              c:/chibistudio/tools/gnu tools arm embedded/10.3 2021.07/bin/../lib/gcc/arm-none-eabi/10.3.1/../../../../arm-none-eabi/lib/thumb/v7e-m/nofp\libg.a(lib_a-findfp.o)
__smakebuf_r                                      c:/chibistudio/tools/gnu tools arm embedded/10.3 2021.07/bin/../lib/gcc/arm-none-eabi/10.3.1/../../../../arm-none-eabi/lib/thumb/v7e-m/nofp\libg.a(lib_a-makebuf.o)
                                                  c:/chibistudio/tools/gnu tools arm embedded/10.3 2021.07/bin/../lib/gcc/arm-none-eabi/10.3.1/../../../../arm-none-eabi/lib/thumb/v7e-m/nofp\libg.a(lib_a-wsetup.o)
__sprint_r                                        c:/chibistudio/tools/gnu tools arm embedded/10.3 2021.07/bin/../lib/gcc/arm-none-eabi/10.3.1/../../../../arm-none-eabi/lib/thumb/v7e-m/nofp\libg.a(lib_a-vfiprintf.o)
__sread                                           c:/chibistudio/tools/gnu tools arm embedded/10.3 2021.07/bin/../lib/gcc/arm-none-eabi/10.3.1/../../../../arm-none-eabi/lib/thumb/v7e-m/nofp\libg.a(lib_a-stdio.o)
                                                  c:/chibistudio/tools/gnu tools arm embedded/10.3 2021.07/bin/../lib/gcc/arm-none-eabi/10.3.1/../../../../arm-none-eabi/lib/thumb/v7e-m/nofp\libg.a(lib_a-findfp.o)
__sseek                                           c:/chibistudio/tools/gnu tools arm embedded/10.3 2021.07/bin/../lib/gcc/arm-none-eabi/10.3.1/../../../../arm-none-eabi/lib/thumb/v7e-m/nofp\libg.a(lib_a-stdio.o)
                                                  c:/chibistudio/tools/gnu tools arm embedded/10.3 2021.07/bin/../lib/gcc/arm-none-eabi/10.3.1/../../../../arm-none-eabi/lib/thumb/v7e-m/nofp\libg.a(lib_a-findfp.o)
__stats_ctxswc                                    ./build/obj/chstats.o (symbol from plugin)
                                                  ./build/obj/chschd.o (symbol from plugin)
__stats_increase_irq                              ./build/obj/chstats.o (symbol from plugin)
                                                  ./build/obj/hal_usb_lld.o (symbol from plugin)
                                                  ./build/obj/stm32_dma.o (symbol from plugin)
                                                  ./build/obj/stm32_isr.o (symbol from plugin)
__stats_start_measure_crit_isr                    ./build/obj/chstats.o (symbol from plugin)
                                                  ./build/obj/usbcfg.o (symbol from plugin)
                                                  ./build/obj/chschd.o (symbol from plugin)
                                                  ./build/obj/chvt.o (symbol from plugin)
                                                  ./build/obj/chsys.o (symbol from plugin)
                                                  ./build/obj/hal_sio_lld.o (symbol from plugin)
                                                  ./build/obj/hal_st_lld.o (symbol from plugin)
                                                  ./build/obj/hal_spi_v2_lld.o (symbol from plugin)
                                                  ./build/obj/stm32_isr.o (symbol from plugin)
                                                  ./build/obj/hal_usb.o (symbol from plugin)
                                                  ./build/obj/hal_serial_usb.o (symbol from plugin)
__stats_start_measure_crit_thd                    ./build/obj/chstats.o (symbol from plugin)
                                                  ./build/obj/digital_driver.o (symbol from plugin)
                                                  ./build/obj/shell.o (symbol from plugin)
                                                  ./build/obj/chcore.o (symbol from plugin)
                                                  ./build/obj/chmempools.o (symbol from plugin)
                                                  ./build/obj/chmemcore.o (symbol from plugin)
                                                  ./build/obj/chmboxes.o (symbol from plugin)
                                                  ./build/obj/chdynamic.o (symbol from plugin)
                                                  ./build/obj/chmsg.o (symbol from plugin)
                                                  ./build/obj/chevents.o (symbol from plugin)
                                                  ./build/obj/chcond.o (symbol from plugin)
                                                  ./build/obj/chmtx.o (symbol from plugin)
                                                  ./build/obj/chsem.o (symbol from plugin)
                                                  ./build/obj/chregistry.o (symbol from plugin)
                                                  ./build/obj/chthreads.o (symbol from plugin)
                                                  ./build/obj/chsys.o (symbol from plugin)
                                                  ./build/obj/stm32_dma.o (symbol from plugin)
                                                  ./build/obj/hal_usb.o (symbol from plugin)
                                                  ./build/obj/hal_spi.o (symbol from plugin)
                                                  ./build/obj/hal_sio.o (symbol from plugin)
                                                  ./build/obj/hal_serial_usb.o (symbol from plugin)
                                                  ./build/obj/hal_pal.o (symbol from plugin)
                                                  ./build/obj/hal_gpt.o (symbol from plugin)
                                                  ./build/obj/hal_queues.o (symbol from plugin)
                                                  ./build/obj/hal_buffers.o (symbol from plugin)
__stats_stop_measure_crit_isr                     ./build/obj/chstats.o (symbol from plugin)
                                                  ./build/obj/usbcfg.o (symbol from plugin)
                                                  ./build/obj/chschd.o (symbol from plugin)
                                                  ./build/obj/chvt.o (symbol from plugin)
                                                  ./build/obj/chsys.o (symbol from plugin)
                                                  ./build/obj/hal_sio_lld.o (symbol from plugin)
                                                  ./build/obj/hal_st_lld.o (symbol from plugin)
                                                  ./build/obj/hal_spi_v2_lld.o (symbol from plugin)
                                                  ./build/obj/stm32_isr.o (symbol from plugin)
                                                  ./build/obj/hal_usb.o (symbol from plugin)
                                                  ./build/obj/hal_serial_usb.o (symbol from plugin)
__stats_stop_measure_crit_thd                     C:\Users\zerog\AppData\Local\Temp\APS_DIGITAL_CGG.elf.PLIgTd.ltrans0.ltrans.o
                                                  ./build/obj/chstats.o (symbol from plugin)
                                                  ./build/obj/digital_driver.o (symbol from plugin)
                                                  ./build/obj/chcore.o (symbol from plugin)
                                                  ./build/obj/chmempools.o (symbol from plugin)
                                                  ./build/obj/chmemcore.o (symbol from plugin)
                                                  ./build/obj/chmboxes.o (symbol from plugin)
                                                  ./build/obj/chdynamic.o (symbol from plugin)
                                                  ./build/obj/chmsg.o (symbol from plugin)
                                                  ./build/obj/chevents.o (symbol from plugin)
                                                  ./build/obj/chcond.o (symbol from plugin)
                                                  ./build/obj/chmtx.o (symbol from plugin)
                                                  ./build/obj/chsem.o (symbol from plugin)
                                                  ./build/obj/chregistry.o (symbol from plugin)
                                                  ./build/obj/chthreads.o (symbol from plugin)
                                                  ./build/obj/chsys.o (symbol from plugin)
                                                  ./build/obj/stm32_dma.o (symbol from plugin)
                                                  ./build/obj/hal_usb.o (symbol from plugin)
                                                  ./build/obj/hal_spi.o (symbol from plugin)
                                                  ./build/obj/hal_sio.o (symbol from plugin)
                                                  ./build/obj/hal_serial_usb.o (symbol from plugin)
                                                  ./build/obj/hal_pal.o (symbol from plugin)
                                                  ./build/obj/hal_gpt.o (symbol from plugin)
                                                  ./build/obj/hal_queues.o (symbol from plugin)
                                                  ./build/obj/hal_buffers.o (symbol from plugin)
                                                  ./build/obj/chcoreasm.o
__subdf3                                          c:/chibistudio/tools/gnu tools arm embedded/10.3 2021.07/bin/../lib/gcc/arm-none-eabi/10.3.1/thumb/v7e-m/nofp\libgcc.a(_arm_addsubdf3.o)
__swbuf                                           c:/chibistudio/tools/gnu tools arm embedded/10.3 2021.07/bin/../lib/gcc/arm-none-eabi/10.3.1/../../../../arm-none-eabi/lib/thumb/v7e-m/nofp\libg.a(lib_a-wbuf.o)
__swbuf_r                                         c:/chibistudio/tools/gnu tools arm embedded/10.3 2021.07/bin/../lib/gcc/arm-none-eabi/10.3.1/../../../../arm-none-eabi/lib/thumb/v7e-m/nofp\libg.a(lib_a-wbuf.o)
                                                  c:/chibistudio/tools/gnu tools arm embedded/10.3 2021.07/bin/../lib/gcc/arm-none-eabi/10.3.1/../../../../arm-none-eabi/lib/thumb/v7e-m/nofp\libg.a(lib_a-fputwc.o)
__swhatbuf_r                                      c:/chibistudio/tools/gnu tools arm embedded/10.3 2021.07/bin/../lib/gcc/arm-none-eabi/10.3.1/../../../../arm-none-eabi/lib/thumb/v7e-m/nofp\libg.a(lib_a-makebuf.o)
__swrite                                          c:/chibistudio/tools/gnu tools arm embedded/10.3 2021.07/bin/../lib/gcc/arm-none-eabi/10.3.1/../../../../arm-none-eabi/lib/thumb/v7e-m/nofp\libg.a(lib_a-stdio.o)
                                                  c:/chibistudio/tools/gnu tools arm embedded/10.3 2021.07/bin/../lib/gcc/arm-none-eabi/10.3.1/../../../../arm-none-eabi/lib/thumb/v7e-m/nofp\libg.a(lib_a-findfp.o)
__swsetup_r                                       c:/chibistudio/tools/gnu tools arm embedded/10.3 2021.07/bin/../lib/gcc/arm-none-eabi/10.3.1/../../../../arm-none-eabi/lib/thumb/v7e-m/nofp\libg.a(lib_a-wsetup.o)
                                                  c:/chibistudio/tools/gnu tools arm embedded/10.3 2021.07/bin/../lib/gcc/arm-none-eabi/10.3.1/../../../../arm-none-eabi/lib/thumb/v7e-m/nofp\libg.a(lib_a-wbuf.o)
                                                  c:/chibistudio/tools/gnu tools arm embedded/10.3 2021.07/bin/../lib/gcc/arm-none-eabi/10.3.1/../../../../arm-none-eabi/lib/thumb/v7e-m/nofp\libg.a(lib_a-fvwrite.o)
                                                  c:/chibistudio/tools/gnu tools arm embedded/10.3 2021.07/bin/../lib/gcc/arm-none-eabi/10.3.1/../../../../arm-none-eabi/lib/thumb/v7e-m/nofp\libg.a(lib_a-vfiprintf.o)
__textdata_base__                                 ./build/obj/crt0_v7m.o
__thd_object_init                                 ./build/obj/chthreads.o (symbol from plugin)
                                                  ./build/obj/chinstances.o (symbol from plugin)
__truncdfsf2                                      c:/chibistudio/tools/gnu tools arm embedded/10.3 2021.07/bin/../lib/gcc/arm-none-eabi/10.3.1/thumb/v7e-m/nofp\libgcc.a(_arm_truncdfsf2.o)
__udivmoddi4                                      c:/chibistudio/tools/gnu tools arm embedded/10.3 2021.07/bin/../lib/gcc/arm-none-eabi/10.3.1/thumb/v7e-m/nofp\libgcc.a(_udivmoddi4.o)
                                                  c:/chibistudio/tools/gnu tools arm embedded/10.3 2021.07/bin/../lib/gcc/arm-none-eabi/10.3.1/thumb/v7e-m/nofp\libgcc.a(_aeabi_ldivmod.o)
                                                  c:/chibistudio/tools/gnu tools arm embedded/10.3 2021.07/bin/../lib/gcc/arm-none-eabi/10.3.1/thumb/v7e-m/nofp\libgcc.a(_aeabi_uldivmod.o)
__ulp                                             c:/chibistudio/tools/gnu tools arm embedded/10.3 2021.07/bin/../lib/gcc/arm-none-eabi/10.3.1/../../../../arm-none-eabi/lib/thumb/v7e-m/nofp\libg.a(lib_a-mprec.o)
                                                  c:/chibistudio/tools/gnu tools arm embedded/10.3 2021.07/bin/../lib/gcc/arm-none-eabi/10.3.1/../../../../arm-none-eabi/lib/thumb/v7e-m/nofp\libg.a(lib_a-strtod.o)
__unorddf2                                        c:/chibistudio/tools/gnu tools arm embedded/10.3 2021.07/bin/../lib/gcc/arm-none-eabi/10.3.1/thumb/v7e-m/nofp\libgcc.a(_arm_unorddf2.o)
__unordsf2                                        c:/chibistudio/tools/gnu tools arm embedded/10.3 2021.07/bin/../lib/gcc/arm-none-eabi/10.3.1/thumb/v7e-m/nofp\libgcc.a(_arm_unordsf2.o)
_calloc_r                                         c:/chibistudio/tools/gnu tools arm embedded/10.3 2021.07/bin/../lib/gcc/arm-none-eabi/10.3.1/../../../../arm-none-eabi/lib/thumb/v7e-m/nofp\libg.a(lib_a-callocr.o)
                                                  c:/chibistudio/tools/gnu tools arm embedded/10.3 2021.07/bin/../lib/gcc/arm-none-eabi/10.3.1/../../../../arm-none-eabi/lib/thumb/v7e-m/nofp\libg.a(lib_a-mprec.o)
_cleanup                                          c:/chibistudio/tools/gnu tools arm embedded/10.3 2021.07/bin/../lib/gcc/arm-none-eabi/10.3.1/../../../../arm-none-eabi/lib/thumb/v7e-m/nofp\libg.a(lib_a-findfp.o)
_cleanup_r                                        c:/chibistudio/tools/gnu tools arm embedded/10.3 2021.07/bin/../lib/gcc/arm-none-eabi/10.3.1/../../../../arm-none-eabi/lib/thumb/v7e-m/nofp\libg.a(lib_a-findfp.o)
                                                  c:/chibistudio/tools/gnu tools arm embedded/10.3 2021.07/bin/../lib/gcc/arm-none-eabi/10.3.1/../../../../arm-none-eabi/lib/thumb/v7e-m/nofp\libg.a(lib_a-makebuf.o)
_close_r                                          C:\Users\zerog\AppData\Local\Temp\APS_DIGITAL_CGG.elf.PLIgTd.ltrans0.ltrans.o
                                                  ./build/obj/syscalls.o (symbol from plugin)
                                                  c:/chibistudio/tools/gnu tools arm embedded/10.3 2021.07/bin/../lib/gcc/arm-none-eabi/10.3.1/../../../../arm-none-eabi/lib/thumb/v7e-m/nofp\libg.a(lib_a-stdio.o)
_crt0_entry                                       ./build/obj/crt0_v7m.o
                                                  ./build/obj/vectors.o
_ctype_                                           c:/chibistudio/tools/gnu tools arm embedded/10.3 2021.07/bin/../lib/gcc/arm-none-eabi/10.3.1/../../../../arm-none-eabi/lib/thumb/v7e-m/nofp\libg.a(lib_a-ctype_.o)
                                                  c:/chibistudio/tools/gnu tools arm embedded/10.3 2021.07/bin/../lib/gcc/arm-none-eabi/10.3.1/../../../../arm-none-eabi/lib/thumb/v7e-m/nofp\libg.a(lib_a-strcasecmp.o)
                                                  c:/chibistudio/tools/gnu tools arm embedded/10.3 2021.07/bin/../lib/gcc/arm-none-eabi/10.3.1/../../../../arm-none-eabi/lib/thumb/v7e-m/nofp\libg.a(lib_a-locale.o)
                                                  ./build/obj/chscanf.o (symbol from plugin)
_exit                                             C:\Users\zerog\AppData\Local\Temp\APS_DIGITAL_CGG.elf.PLIgTd.ltrans0.ltrans.o
                                                  ./build/obj/syscalls.o (symbol from plugin)
                                                  c:/chibistudio/tools/gnu tools arm embedded/10.3 2021.07/bin/../lib/gcc/arm-none-eabi/10.3.1/../../../../arm-none-eabi/lib/thumb/v7e-m/nofp\libg.a(lib_a-abort.o)
_fclose_r                                         c:/chibistudio/tools/gnu tools arm embedded/10.3 2021.07/bin/../lib/gcc/arm-none-eabi/10.3.1/../../../../arm-none-eabi/lib/thumb/v7e-m/nofp\libg.a(lib_a-fclose.o)
                                                  c:/chibistudio/tools/gnu tools arm embedded/10.3 2021.07/bin/../lib/gcc/arm-none-eabi/10.3.1/../../../../arm-none-eabi/lib/thumb/v7e-m/nofp\libg.a(lib_a-findfp.o)
_fflush_r                                         c:/chibistudio/tools/gnu tools arm embedded/10.3 2021.07/bin/../lib/gcc/arm-none-eabi/10.3.1/../../../../arm-none-eabi/lib/thumb/v7e-m/nofp\libg.a(lib_a-fflush.o)
                                                  c:/chibistudio/tools/gnu tools arm embedded/10.3 2021.07/bin/../lib/gcc/arm-none-eabi/10.3.1/../../../../arm-none-eabi/lib/thumb/v7e-m/nofp\libg.a(lib_a-wbuf.o)
                                                  c:/chibistudio/tools/gnu tools arm embedded/10.3 2021.07/bin/../lib/gcc/arm-none-eabi/10.3.1/../../../../arm-none-eabi/lib/thumb/v7e-m/nofp\libg.a(lib_a-fvwrite.o)
                                                  c:/chibistudio/tools/gnu tools arm embedded/10.3 2021.07/bin/../lib/gcc/arm-none-eabi/10.3.1/../../../../arm-none-eabi/lib/thumb/v7e-m/nofp\libg.a(lib_a-vfiprintf.o)
_fiprintf_r                                       c:/chibistudio/tools/gnu tools arm embedded/10.3 2021.07/bin/../lib/gcc/arm-none-eabi/10.3.1/../../../../arm-none-eabi/lib/thumb/v7e-m/nofp\libg.a(lib_a-fiprintf.o)
_fputwc_r                                         c:/chibistudio/tools/gnu tools arm embedded/10.3 2021.07/bin/../lib/gcc/arm-none-eabi/10.3.1/../../../../arm-none-eabi/lib/thumb/v7e-m/nofp\libg.a(lib_a-fputwc.o)
                                                  c:/chibistudio/tools/gnu tools arm embedded/10.3 2021.07/bin/../lib/gcc/arm-none-eabi/10.3.1/../../../../arm-none-eabi/lib/thumb/v7e-m/nofp\libg.a(lib_a-vfiprintf.o)
_free_r                                           c:/chibistudio/tools/gnu tools arm embedded/10.3 2021.07/bin/../lib/gcc/arm-none-eabi/10.3.1/../../../../arm-none-eabi/lib/thumb/v7e-m/nofp\libg.a(lib_a-freer.o)
                                                  c:/chibistudio/tools/gnu tools arm embedded/10.3 2021.07/bin/../lib/gcc/arm-none-eabi/10.3.1/../../../../arm-none-eabi/lib/thumb/v7e-m/nofp\libg.a(lib_a-reent.o)
                                                  c:/chibistudio/tools/gnu tools arm embedded/10.3 2021.07/bin/../lib/gcc/arm-none-eabi/10.3.1/../../../../arm-none-eabi/lib/thumb/v7e-m/nofp\libg.a(lib_a-fclose.o)
                                                  c:/chibistudio/tools/gnu tools arm embedded/10.3 2021.07/bin/../lib/gcc/arm-none-eabi/10.3.1/../../../../arm-none-eabi/lib/thumb/v7e-m/nofp\libg.a(lib_a-reallocr.o)
                                                  c:/chibistudio/tools/gnu tools arm embedded/10.3 2021.07/bin/../lib/gcc/arm-none-eabi/10.3.1/../../../../arm-none-eabi/lib/thumb/v7e-m/nofp\libg.a(lib_a-fvwrite.o)
                                                  c:/chibistudio/tools/gnu tools arm embedded/10.3 2021.07/bin/../lib/gcc/arm-none-eabi/10.3.1/../../../../arm-none-eabi/lib/thumb/v7e-m/nofp\libg.a(lib_a-fflush.o)
                                                  c:/chibistudio/tools/gnu tools arm embedded/10.3 2021.07/bin/../lib/gcc/arm-none-eabi/10.3.1/../../../../arm-none-eabi/lib/thumb/v7e-m/nofp\libg.a(lib_a-wsetup.o)
                                                  c:/chibistudio/tools/gnu tools arm embedded/10.3 2021.07/bin/../lib/gcc/arm-none-eabi/10.3.1/../../../../arm-none-eabi/lib/thumb/v7e-m/nofp\libg.a(lib_a-mallocr.o)
_fstat_r                                          C:\Users\zerog\AppData\Local\Temp\APS_DIGITAL_CGG.elf.PLIgTd.ltrans0.ltrans.o
                                                  ./build/obj/syscalls.o (symbol from plugin)
                                                  c:/chibistudio/tools/gnu tools arm embedded/10.3 2021.07/bin/../lib/gcc/arm-none-eabi/10.3.1/../../../../arm-none-eabi/lib/thumb/v7e-m/nofp\libg.a(lib_a-makebuf.o)
_fwalk                                            c:/chibistudio/tools/gnu tools arm embedded/10.3 2021.07/bin/../lib/gcc/arm-none-eabi/10.3.1/../../../../arm-none-eabi/lib/thumb/v7e-m/nofp\libg.a(lib_a-fwalk.o)
                                                  c:/chibistudio/tools/gnu tools arm embedded/10.3 2021.07/bin/../lib/gcc/arm-none-eabi/10.3.1/../../../../arm-none-eabi/lib/thumb/v7e-m/nofp\libg.a(lib_a-findfp.o)
_fwalk_reent                                      c:/chibistudio/tools/gnu tools arm embedded/10.3 2021.07/bin/../lib/gcc/arm-none-eabi/10.3.1/../../../../arm-none-eabi/lib/thumb/v7e-m/nofp\libg.a(lib_a-fwalk.o)
                                                  c:/chibistudio/tools/gnu tools arm embedded/10.3 2021.07/bin/../lib/gcc/arm-none-eabi/10.3.1/../../../../arm-none-eabi/lib/thumb/v7e-m/nofp\libg.a(lib_a-findfp.o)
                                                  c:/chibistudio/tools/gnu tools arm embedded/10.3 2021.07/bin/../lib/gcc/arm-none-eabi/10.3.1/../../../../arm-none-eabi/lib/thumb/v7e-m/nofp\libg.a(lib_a-fflush.o)
_getpid                                           C:\Users\zerog\AppData\Local\Temp\APS_DIGITAL_CGG.elf.PLIgTd.ltrans0.ltrans.o
                                                  ./build/obj/syscalls.o (symbol from plugin)
                                                  c:/chibistudio/tools/gnu tools arm embedded/10.3 2021.07/bin/../lib/gcc/arm-none-eabi/10.3.1/../../../../arm-none-eabi/lib/thumb/v7e-m/nofp\libg.a(lib_a-signalr.o)
_getpid_r                                         c:/chibistudio/tools/gnu tools arm embedded/10.3 2021.07/bin/../lib/gcc/arm-none-eabi/10.3.1/../../../../arm-none-eabi/lib/thumb/v7e-m/nofp\libg.a(lib_a-signalr.o)
                                                  c:/chibistudio/tools/gnu tools arm embedded/10.3 2021.07/bin/../lib/gcc/arm-none-eabi/10.3.1/../../../../arm-none-eabi/lib/thumb/v7e-m/nofp\libg.a(lib_a-signal.o)
_global_impure_ptr                                c:/chibistudio/tools/gnu tools arm embedded/10.3 2021.07/bin/../lib/gcc/arm-none-eabi/10.3.1/../../../../arm-none-eabi/lib/thumb/v7e-m/nofp\libg.a(lib_a-impure.o)
                                                  c:/chibistudio/tools/gnu tools arm embedded/10.3 2021.07/bin/../lib/gcc/arm-none-eabi/10.3.1/../../../../arm-none-eabi/lib/thumb/v7e-m/nofp\libg.a(lib_a-findfp.o)
                                                  c:/chibistudio/tools/gnu tools arm embedded/10.3 2021.07/bin/../lib/gcc/arm-none-eabi/10.3.1/../../../../arm-none-eabi/lib/thumb/v7e-m/nofp\libg.a(lib_a-fflush.o)
_impure_ptr                                       c:/chibistudio/tools/gnu tools arm embedded/10.3 2021.07/bin/../lib/gcc/arm-none-eabi/10.3.1/../../../../arm-none-eabi/lib/thumb/v7e-m/nofp\libg.a(lib_a-impure.o)
                                                  c:/chibistudio/tools/gnu tools arm embedded/10.3 2021.07/bin/../lib/gcc/arm-none-eabi/10.3.1/../../../../arm-none-eabi/lib/thumb/v7e-m/nofp\libg.a(lib_a-reent.o)
                                                  c:/chibistudio/tools/gnu tools arm embedded/10.3 2021.07/bin/../lib/gcc/arm-none-eabi/10.3.1/../../../../arm-none-eabi/lib/thumb/v7e-m/nofp\libg.a(lib_a-fclose.o)
                                                  c:/chibistudio/tools/gnu tools arm embedded/10.3 2021.07/bin/../lib/gcc/arm-none-eabi/10.3.1/../../../../arm-none-eabi/lib/thumb/v7e-m/nofp\libg.a(lib_a-wcrtomb.o)
                                                  c:/chibistudio/tools/gnu tools arm embedded/10.3 2021.07/bin/../lib/gcc/arm-none-eabi/10.3.1/../../../../arm-none-eabi/lib/thumb/v7e-m/nofp\libg.a(lib_a-wbuf.o)
                                                  c:/chibistudio/tools/gnu tools arm embedded/10.3 2021.07/bin/../lib/gcc/arm-none-eabi/10.3.1/../../../../arm-none-eabi/lib/thumb/v7e-m/nofp\libg.a(lib_a-signal.o)
                                                  c:/chibistudio/tools/gnu tools arm embedded/10.3 2021.07/bin/../lib/gcc/arm-none-eabi/10.3.1/../../../../arm-none-eabi/lib/thumb/v7e-m/nofp\libg.a(lib_a-fputwc.o)
                                                  c:/chibistudio/tools/gnu tools arm embedded/10.3 2021.07/bin/../lib/gcc/arm-none-eabi/10.3.1/../../../../arm-none-eabi/lib/thumb/v7e-m/nofp\libg.a(lib_a-findfp.o)
                                                  c:/chibistudio/tools/gnu tools arm embedded/10.3 2021.07/bin/../lib/gcc/arm-none-eabi/10.3.1/../../../../arm-none-eabi/lib/thumb/v7e-m/nofp\libg.a(lib_a-fflush.o)
                                                  c:/chibistudio/tools/gnu tools arm embedded/10.3 2021.07/bin/../lib/gcc/arm-none-eabi/10.3.1/../../../../arm-none-eabi/lib/thumb/v7e-m/nofp\libg.a(lib_a-wsetup.o)
                                                  c:/chibistudio/tools/gnu tools arm embedded/10.3 2021.07/bin/../lib/gcc/arm-none-eabi/10.3.1/../../../../arm-none-eabi/lib/thumb/v7e-m/nofp\libg.a(lib_a-vfiprintf.o)
                                                  c:/chibistudio/tools/gnu tools arm embedded/10.3 2021.07/bin/../lib/gcc/arm-none-eabi/10.3.1/../../../../arm-none-eabi/lib/thumb/v7e-m/nofp\libg.a(lib_a-fiprintf.o)
                                                  c:/chibistudio/tools/gnu tools arm embedded/10.3 2021.07/bin/../lib/gcc/arm-none-eabi/10.3.1/../../../../arm-none-eabi/lib/thumb/v7e-m/nofp\libg.a(lib_a-assert.o)
                                                  c:/chibistudio/tools/gnu tools arm embedded/10.3 2021.07/bin/../lib/gcc/arm-none-eabi/10.3.1/../../../../arm-none-eabi/lib/thumb/v7e-m/nofp\libg.a(lib_a-strtod.o)
                                                  c:/chibistudio/tools/gnu tools arm embedded/10.3 2021.07/bin/../lib/gcc/arm-none-eabi/10.3.1/../../../../arm-none-eabi/lib/thumb/v7e-m/nofp\libg.a(lib_a-errno.o)
_init_signal                                      c:/chibistudio/tools/gnu tools arm embedded/10.3 2021.07/bin/../lib/gcc/arm-none-eabi/10.3.1/../../../../arm-none-eabi/lib/thumb/v7e-m/nofp\libg.a(lib_a-signal.o)
_init_signal_r                                    c:/chibistudio/tools/gnu tools arm embedded/10.3 2021.07/bin/../lib/gcc/arm-none-eabi/10.3.1/../../../../arm-none-eabi/lib/thumb/v7e-m/nofp\libg.a(lib_a-signal.o)
_isatty_r                                         C:\Users\zerog\AppData\Local\Temp\APS_DIGITAL_CGG.elf.PLIgTd.ltrans0.ltrans.o
                                                  ./build/obj/syscalls.o (symbol from plugin)
                                                  c:/chibistudio/tools/gnu tools arm embedded/10.3 2021.07/bin/../lib/gcc/arm-none-eabi/10.3.1/../../../../arm-none-eabi/lib/thumb/v7e-m/nofp\libg.a(lib_a-makebuf.o)
_kill                                             C:\Users\zerog\AppData\Local\Temp\APS_DIGITAL_CGG.elf.PLIgTd.ltrans0.ltrans.o
                                                  ./build/obj/syscalls.o (symbol from plugin)
                                                  c:/chibistudio/tools/gnu tools arm embedded/10.3 2021.07/bin/../lib/gcc/arm-none-eabi/10.3.1/../../../../arm-none-eabi/lib/thumb/v7e-m/nofp\libg.a(lib_a-signalr.o)
_kill_r                                           c:/chibistudio/tools/gnu tools arm embedded/10.3 2021.07/bin/../lib/gcc/arm-none-eabi/10.3.1/../../../../arm-none-eabi/lib/thumb/v7e-m/nofp\libg.a(lib_a-signalr.o)
                                                  c:/chibistudio/tools/gnu tools arm embedded/10.3 2021.07/bin/../lib/gcc/arm-none-eabi/10.3.1/../../../../arm-none-eabi/lib/thumb/v7e-m/nofp\libg.a(lib_a-signal.o)
_localeconv_r                                     c:/chibistudio/tools/gnu tools arm embedded/10.3 2021.07/bin/../lib/gcc/arm-none-eabi/10.3.1/../../../../arm-none-eabi/lib/thumb/v7e-m/nofp\libg.a(lib_a-localeconv.o)
                                                  c:/chibistudio/tools/gnu tools arm embedded/10.3 2021.07/bin/../lib/gcc/arm-none-eabi/10.3.1/../../../../arm-none-eabi/lib/thumb/v7e-m/nofp\libg.a(lib_a-vfiprintf.o)
_lseek_r                                          C:\Users\zerog\AppData\Local\Temp\APS_DIGITAL_CGG.elf.PLIgTd.ltrans0.ltrans.o
                                                  ./build/obj/syscalls.o (symbol from plugin)
                                                  c:/chibistudio/tools/gnu tools arm embedded/10.3 2021.07/bin/../lib/gcc/arm-none-eabi/10.3.1/../../../../arm-none-eabi/lib/thumb/v7e-m/nofp\libg.a(lib_a-stdio.o)
_malloc_r                                         c:/chibistudio/tools/gnu tools arm embedded/10.3 2021.07/bin/../lib/gcc/arm-none-eabi/10.3.1/../../../../arm-none-eabi/lib/thumb/v7e-m/nofp\libg.a(lib_a-mallocr.o)
                                                  c:/chibistudio/tools/gnu tools arm embedded/10.3 2021.07/bin/../lib/gcc/arm-none-eabi/10.3.1/../../../../arm-none-eabi/lib/thumb/v7e-m/nofp\libg.a(lib_a-signal.o)
                                                  c:/chibistudio/tools/gnu tools arm embedded/10.3 2021.07/bin/../lib/gcc/arm-none-eabi/10.3.1/../../../../arm-none-eabi/lib/thumb/v7e-m/nofp\libg.a(lib_a-reallocr.o)
                                                  c:/chibistudio/tools/gnu tools arm embedded/10.3 2021.07/bin/../lib/gcc/arm-none-eabi/10.3.1/../../../../arm-none-eabi/lib/thumb/v7e-m/nofp\libg.a(lib_a-makebuf.o)
                                                  c:/chibistudio/tools/gnu tools arm embedded/10.3 2021.07/bin/../lib/gcc/arm-none-eabi/10.3.1/../../../../arm-none-eabi/lib/thumb/v7e-m/nofp\libg.a(lib_a-fvwrite.o)
                                                  c:/chibistudio/tools/gnu tools arm embedded/10.3 2021.07/bin/../lib/gcc/arm-none-eabi/10.3.1/../../../../arm-none-eabi/lib/thumb/v7e-m/nofp\libg.a(lib_a-findfp.o)
                                                  c:/chibistudio/tools/gnu tools arm embedded/10.3 2021.07/bin/../lib/gcc/arm-none-eabi/10.3.1/../../../../arm-none-eabi/lib/thumb/v7e-m/nofp\libg.a(lib_a-callocr.o)
_malloc_trim_r                                    c:/chibistudio/tools/gnu tools arm embedded/10.3 2021.07/bin/../lib/gcc/arm-none-eabi/10.3.1/../../../../arm-none-eabi/lib/thumb/v7e-m/nofp\libg.a(lib_a-freer.o)
_mbtowc_r                                         c:/chibistudio/tools/gnu tools arm embedded/10.3 2021.07/bin/../lib/gcc/arm-none-eabi/10.3.1/../../../../arm-none-eabi/lib/thumb/v7e-m/nofp\libg.a(lib_a-mbtowc_r.o)
_mprec_log10                                      c:/chibistudio/tools/gnu tools arm embedded/10.3 2021.07/bin/../lib/gcc/arm-none-eabi/10.3.1/../../../../arm-none-eabi/lib/thumb/v7e-m/nofp\libg.a(lib_a-mprec.o)
_open_r                                           C:\Users\zerog\AppData\Local\Temp\APS_DIGITAL_CGG.elf.PLIgTd.ltrans0.ltrans.o
                                                  ./build/obj/syscalls.o (symbol from plugin)
_pal_events                                       ./build/obj/hal_pal_lld.o (symbol from plugin)
                                                  ./build/obj/stm32_isr.o (symbol from plugin)
                                                  ./build/obj/hal_pal.o (symbol from plugin)
_pal_lld_disablepadevent                          ./build/obj/hal_pal_lld.o (symbol from plugin)
_pal_lld_enablepadevent                           ./build/obj/hal_pal_lld.o (symbol from plugin)
_pal_lld_init                                     ./build/obj/hal_pal_lld.o (symbol from plugin)
                                                  ./build/obj/hal.o (symbol from plugin)
_pal_lld_setgroupmode                             ./build/obj/hal_pal_lld.o (symbol from plugin)
                                                  ./build/obj/digital_driver.o (symbol from plugin)
                                                  ./build/obj/main.o (symbol from plugin)
                                                  ./build/obj/hal_pal.o (symbol from plugin)
_raise_r                                          c:/chibistudio/tools/gnu tools arm embedded/10.3 2021.07/bin/../lib/gcc/arm-none-eabi/10.3.1/../../../../arm-none-eabi/lib/thumb/v7e-m/nofp\libg.a(lib_a-signal.o)
_read_r                                           C:\Users\zerog\AppData\Local\Temp\APS_DIGITAL_CGG.elf.PLIgTd.ltrans0.ltrans.o
                                                  ./build/obj/syscalls.o (symbol from plugin)
                                                  c:/chibistudio/tools/gnu tools arm embedded/10.3 2021.07/bin/../lib/gcc/arm-none-eabi/10.3.1/../../../../arm-none-eabi/lib/thumb/v7e-m/nofp\libg.a(lib_a-stdio.o)
_realloc_r                                        c:/chibistudio/tools/gnu tools arm embedded/10.3 2021.07/bin/../lib/gcc/arm-none-eabi/10.3.1/../../../../arm-none-eabi/lib/thumb/v7e-m/nofp\libg.a(lib_a-reallocr.o)
                                                  c:/chibistudio/tools/gnu tools arm embedded/10.3 2021.07/bin/../lib/gcc/arm-none-eabi/10.3.1/../../../../arm-none-eabi/lib/thumb/v7e-m/nofp\libg.a(lib_a-fvwrite.o)
_reclaim_reent                                    c:/chibistudio/tools/gnu tools arm embedded/10.3 2021.07/bin/../lib/gcc/arm-none-eabi/10.3.1/../../../../arm-none-eabi/lib/thumb/v7e-m/nofp\libg.a(lib_a-reent.o)
_sbrk_r                                           C:\Users\zerog\AppData\Local\Temp\APS_DIGITAL_CGG.elf.PLIgTd.ltrans0.ltrans.o
                                                  ./build/obj/syscalls.o (symbol from plugin)
                                                  c:/chibistudio/tools/gnu tools arm embedded/10.3 2021.07/bin/../lib/gcc/arm-none-eabi/10.3.1/../../../../arm-none-eabi/lib/thumb/v7e-m/nofp\libg.a(lib_a-freer.o)
                                                  c:/chibistudio/tools/gnu tools arm embedded/10.3 2021.07/bin/../lib/gcc/arm-none-eabi/10.3.1/../../../../arm-none-eabi/lib/thumb/v7e-m/nofp\libg.a(lib_a-mallocr.o)
_setlocale_r                                      c:/chibistudio/tools/gnu tools arm embedded/10.3 2021.07/bin/../lib/gcc/arm-none-eabi/10.3.1/../../../../arm-none-eabi/lib/thumb/v7e-m/nofp\libg.a(lib_a-locale.o)
_signal_r                                         c:/chibistudio/tools/gnu tools arm embedded/10.3 2021.07/bin/../lib/gcc/arm-none-eabi/10.3.1/../../../../arm-none-eabi/lib/thumb/v7e-m/nofp\libg.a(lib_a-signal.o)
_stm32_dma_streams                                ./build/obj/stm32_dma.o (symbol from plugin)
_strtod_l                                         c:/chibistudio/tools/gnu tools arm embedded/10.3 2021.07/bin/../lib/gcc/arm-none-eabi/10.3.1/../../../../arm-none-eabi/lib/thumb/v7e-m/nofp\libg.a(lib_a-strtod.o)
_strtod_r                                         c:/chibistudio/tools/gnu tools arm embedded/10.3 2021.07/bin/../lib/gcc/arm-none-eabi/10.3.1/../../../../arm-none-eabi/lib/thumb/v7e-m/nofp\libg.a(lib_a-strtod.o)
_unhandled_exception                              ./build/obj/vectors.o
_usb_ep0in                                        ./build/obj/hal_usb.o (symbol from plugin)
                                                  ./build/obj/hal_usb_lld.o (symbol from plugin)
_usb_ep0out                                       ./build/obj/hal_usb.o (symbol from plugin)
                                                  ./build/obj/hal_usb_lld.o (symbol from plugin)
_usb_ep0setup                                     ./build/obj/hal_usb.o (symbol from plugin)
                                                  ./build/obj/hal_usb_lld.o (symbol from plugin)
_usb_reset                                        ./build/obj/hal_usb.o (symbol from plugin)
                                                  ./build/obj/hal_usb_lld.o (symbol from plugin)
_usb_suspend                                      ./build/obj/hal_usb.o (symbol from plugin)
                                                  ./build/obj/hal_usb_lld.o (symbol from plugin)
_usb_wakeup                                       ./build/obj/hal_usb.o (symbol from plugin)
                                                  ./build/obj/hal_usb_lld.o (symbol from plugin)
_vectors                                          ./build/obj/vectors.o
                                                  ./build/obj/crt0_v7m.o
_vfiprintf_r                                      c:/chibistudio/tools/gnu tools arm embedded/10.3 2021.07/bin/../lib/gcc/arm-none-eabi/10.3.1/../../../../arm-none-eabi/lib/thumb/v7e-m/nofp\libg.a(lib_a-vfiprintf.o)
                                                  c:/chibistudio/tools/gnu tools arm embedded/10.3 2021.07/bin/../lib/gcc/arm-none-eabi/10.3.1/../../../../arm-none-eabi/lib/thumb/v7e-m/nofp\libg.a(lib_a-fiprintf.o)
_wcrtomb_r                                        c:/chibistudio/tools/gnu tools arm embedded/10.3 2021.07/bin/../lib/gcc/arm-none-eabi/10.3.1/../../../../arm-none-eabi/lib/thumb/v7e-m/nofp\libg.a(lib_a-wcrtomb.o)
                                                  c:/chibistudio/tools/gnu tools arm embedded/10.3 2021.07/bin/../lib/gcc/arm-none-eabi/10.3.1/../../../../arm-none-eabi/lib/thumb/v7e-m/nofp\libg.a(lib_a-fputwc.o)
_wctomb_r                                         c:/chibistudio/tools/gnu tools arm embedded/10.3 2021.07/bin/../lib/gcc/arm-none-eabi/10.3.1/../../../../arm-none-eabi/lib/thumb/v7e-m/nofp\libg.a(lib_a-wctomb_r.o)
_write_r                                          C:\Users\zerog\AppData\Local\Temp\APS_DIGITAL_CGG.elf.PLIgTd.ltrans0.ltrans.o
                                                  ./build/obj/syscalls.o (symbol from plugin)
                                                  c:/chibistudio/tools/gnu tools arm embedded/10.3 2021.07/bin/../lib/gcc/arm-none-eabi/10.3.1/../../../../arm-none-eabi/lib/thumb/v7e-m/nofp\libg.a(lib_a-stdio.o)
abort                                             c:/chibistudio/tools/gnu tools arm embedded/10.3 2021.07/bin/../lib/gcc/arm-none-eabi/10.3.1/../../../../arm-none-eabi/lib/thumb/v7e-m/nofp\libg.a(lib_a-abort.o)
                                                  c:/chibistudio/tools/gnu tools arm embedded/10.3 2021.07/bin/../lib/gcc/arm-none-eabi/10.3.1/../../../../arm-none-eabi/lib/thumb/v7e-m/nofp\libg.a(lib_a-assert.o)
board.c.f3961d47                                  C:\Users\zerog\AppData\Local\Temp\ccwQvbw4.debug.temp.o
                                                  C:\Users\zerog\AppData\Local\Temp\APS_DIGITAL_CGG.elf.PLIgTd.ltrans0.ltrans.o
boardInit                                         ./build/obj/board.o (symbol from plugin)
                                                  ./build/obj/hal.o (symbol from plugin)
bsIncomingDataI                                   ./build/obj/hal_buffered_serial.o (symbol from plugin)
bsRequestDataI                                    ./build/obj/hal_buffered_serial.o (symbol from plugin)
bsaObjectInit                                     ./build/obj/bufstreams.o (symbol from plugin)
bufstreams.c.d64c4472                             C:\Users\zerog\AppData\Local\Temp\ccwCeqKv.debug.temp.o
calculate_parameters                              ./build/obj/digital_driver.o (symbol from plugin)
ch0                                               ./build/obj/chsys.o (symbol from plugin)
                                                  ./build/obj/digital_driver.o (symbol from plugin)
                                                  ./build/obj/main.o (symbol from plugin)
                                                  ./build/obj/shell.o (symbol from plugin)
                                                  ./build/obj/chcore.o (symbol from plugin)
                                                  ./build/obj/chmempools.o (symbol from plugin)
                                                  ./build/obj/chmemcore.o (symbol from plugin)
                                                  ./build/obj/chmboxes.o (symbol from plugin)
                                                  ./build/obj/chdynamic.o (symbol from plugin)
                                                  ./build/obj/chmsg.o (symbol from plugin)
                                                  ./build/obj/chevents.o (symbol from plugin)
                                                  ./build/obj/chcond.o (symbol from plugin)
                                                  ./build/obj/chmtx.o (symbol from plugin)
                                                  ./build/obj/chsem.o (symbol from plugin)
                                                  ./build/obj/chregistry.o (symbol from plugin)
                                                  ./build/obj/chstats.o (symbol from plugin)
                                                  ./build/obj/chthreads.o (symbol from plugin)
                                                  ./build/obj/chschd.o (symbol from plugin)
                                                  ./build/obj/chvt.o (symbol from plugin)
                                                  ./build/obj/chdebug.o (symbol from plugin)
                                                  ./build/obj/chrfcu.o (symbol from plugin)
                                                  ./build/obj/stm32_dma.o (symbol from plugin)
                                                  ./build/obj/hal_usb.o (symbol from plugin)
                                                  ./build/obj/hal_spi.o (symbol from plugin)
                                                  ./build/obj/hal_sio.o (symbol from plugin)
                                                  ./build/obj/hal_serial_usb.o (symbol from plugin)
                                                  ./build/obj/hal_pal.o (symbol from plugin)
                                                  ./build/obj/hal_gpt.o (symbol from plugin)
                                                  ./build/obj/hal_queues.o (symbol from plugin)
                                                  ./build/obj/hal_buffers.o (symbol from plugin)
chCondBroadcast                                   ./build/obj/chcond.o (symbol from plugin)
chCondBroadcastI                                  ./build/obj/chcond.o (symbol from plugin)
chCondObjectInit                                  ./build/obj/chcond.o (symbol from plugin)
chCondSignal                                      ./build/obj/chcond.o (symbol from plugin)
chCondSignalI                                     ./build/obj/chcond.o (symbol from plugin)
chCondWait                                        ./build/obj/chcond.o (symbol from plugin)
chCondWaitS                                       ./build/obj/chcond.o (symbol from plugin)
chCondWaitTimeout                                 ./build/obj/chcond.o (symbol from plugin)
chCondWaitTimeoutS                                ./build/obj/chcond.o (symbol from plugin)
chCoreAllocFromBase                               ./build/obj/chmemcore.o (symbol from plugin)
                                                  ./build/obj/syscalls.o (symbol from plugin)
chCoreAllocFromBaseI                              ./build/obj/chmemcore.o (symbol from plugin)
chCoreAllocFromTop                                ./build/obj/chmemcore.o (symbol from plugin)
                                                  ./build/obj/chmemheaps.o (symbol from plugin)
chCoreAllocFromTopI                               ./build/obj/chmemcore.o (symbol from plugin)
chCoreGetStatusX                                  ./build/obj/chmemcore.o (symbol from plugin)
                                                  ./build/obj/shell_cmd.o (symbol from plugin)
chDbgCheckClassI                                  ./build/obj/chdebug.o (symbol from plugin)
                                                  ./build/obj/digital_driver.o (symbol from plugin)
                                                  ./build/obj/chmempools.o (symbol from plugin)
                                                  ./build/obj/chmemcore.o (symbol from plugin)
                                                  ./build/obj/chmboxes.o (symbol from plugin)
                                                  ./build/obj/chmsg.o (symbol from plugin)
                                                  ./build/obj/chevents.o (symbol from plugin)
                                                  ./build/obj/chcond.o (symbol from plugin)
                                                  ./build/obj/chsem.o (symbol from plugin)
                                                  ./build/obj/chthreads.o (symbol from plugin)
                                                  ./build/obj/chschd.o (symbol from plugin)
                                                  ./build/obj/chvt.o (symbol from plugin)
                                                  ./build/obj/chsys.o (symbol from plugin)
                                                  ./build/obj/stm32_dma.o (symbol from plugin)
                                                  ./build/obj/hal_usb.o (symbol from plugin)
                                                  ./build/obj/hal_spi.o (symbol from plugin)
                                                  ./build/obj/hal_gpt.o (symbol from plugin)
                                                  ./build/obj/hal_queues.o (symbol from plugin)
                                                  ./build/obj/hal_buffers.o (symbol from plugin)
                                                  ./build/obj/hal_buffered_serial.o (symbol from plugin)
chDbgCheckClassS                                  ./build/obj/chdebug.o (symbol from plugin)
                                                  ./build/obj/chmboxes.o (symbol from plugin)
                                                  ./build/obj/chmsg.o (symbol from plugin)
                                                  ./build/obj/chcond.o (symbol from plugin)
                                                  ./build/obj/chmtx.o (symbol from plugin)
                                                  ./build/obj/chsem.o (symbol from plugin)
                                                  ./build/obj/chschd.o (symbol from plugin)
                                                  ./build/obj/hal_buffers.o (symbol from plugin)
chEvtAddEvents                                    ./build/obj/chevents.o (symbol from plugin)
chEvtBroadcastFlags                               ./build/obj/chevents.o (symbol from plugin)
chEvtBroadcastFlagsI                              ./build/obj/chevents.o (symbol from plugin)
                                                  ./build/obj/shell.o (symbol from plugin)
                                                  ./build/obj/hal_serial_usb.o (symbol from plugin)
                                                  ./build/obj/hal_buffered_serial.o (symbol from plugin)
chEvtDispatch                                     ./build/obj/chevents.o (symbol from plugin)
chEvtGetAndClearEvents                            ./build/obj/chevents.o (symbol from plugin)
chEvtGetAndClearEventsI                           ./build/obj/chevents.o (symbol from plugin)
chEvtGetAndClearFlags                             ./build/obj/chevents.o (symbol from plugin)
chEvtGetAndClearFlagsI                            ./build/obj/chevents.o (symbol from plugin)
chEvtRegisterMaskWithFlags                        ./build/obj/chevents.o (symbol from plugin)
chEvtRegisterMaskWithFlagsI                       ./build/obj/chevents.o (symbol from plugin)
chEvtSignal                                       ./build/obj/chevents.o (symbol from plugin)
chEvtSignalI                                      ./build/obj/chevents.o (symbol from plugin)
chEvtUnregister                                   ./build/obj/chevents.o (symbol from plugin)
chEvtWaitAll                                      ./build/obj/chevents.o (symbol from plugin)
chEvtWaitAllTimeout                               ./build/obj/chevents.o (symbol from plugin)
chEvtWaitAny                                      ./build/obj/chevents.o (symbol from plugin)
chEvtWaitAnyTimeout                               ./build/obj/chevents.o (symbol from plugin)
chEvtWaitOne                                      ./build/obj/chevents.o (symbol from plugin)
chEvtWaitOneTimeout                               ./build/obj/chevents.o (symbol from plugin)
chGuardedPoolAllocTimeout                         ./build/obj/chmempools.o (symbol from plugin)
chGuardedPoolAllocTimeoutS                        ./build/obj/chmempools.o (symbol from plugin)
chGuardedPoolFree                                 ./build/obj/chmempools.o (symbol from plugin)
chGuardedPoolLoadArray                            ./build/obj/chmempools.o (symbol from plugin)
chGuardedPoolObjectInitAligned                    ./build/obj/chmempools.o (symbol from plugin)
chHeapAllocAligned                                ./build/obj/chmemheaps.o (symbol from plugin)
                                                  ./build/obj/chdynamic.o (symbol from plugin)
chHeapFree                                        ./build/obj/chmemheaps.o (symbol from plugin)
                                                  ./build/obj/chthreads.o (symbol from plugin)
chHeapObjectInit                                  ./build/obj/chmemheaps.o (symbol from plugin)
chHeapStatus                                      ./build/obj/chmemheaps.o (symbol from plugin)
                                                  ./build/obj/shell_cmd.o (symbol from plugin)
chInstanceObjectInit                              ./build/obj/chinstances.o (symbol from plugin)
                                                  ./build/obj/chsys.o (symbol from plugin)
chMBFetchI                                        ./build/obj/chmboxes.o (symbol from plugin)
chMBFetchTimeout                                  ./build/obj/chmboxes.o (symbol from plugin)
                                                  ./build/obj/digital_driver.o (symbol from plugin)
chMBFetchTimeoutS                                 ./build/obj/chmboxes.o (symbol from plugin)
chMBObjectInit                                    ./build/obj/chmboxes.o (symbol from plugin)
                                                  ./build/obj/digital_driver.o (symbol from plugin)
chMBPostAheadI                                    ./build/obj/chmboxes.o (symbol from plugin)
chMBPostAheadTimeout                              ./build/obj/chmboxes.o (symbol from plugin)
chMBPostAheadTimeoutS                             ./build/obj/chmboxes.o (symbol from plugin)
chMBPostI                                         ./build/obj/chmboxes.o (symbol from plugin)
chMBPostTimeout                                   ./build/obj/chmboxes.o (symbol from plugin)
                                                  ./build/obj/digital_driver.o (symbol from plugin)
chMBPostTimeoutS                                  ./build/obj/chmboxes.o (symbol from plugin)
chMBReset                                         ./build/obj/chmboxes.o (symbol from plugin)
chMBResetI                                        ./build/obj/chmboxes.o (symbol from plugin)
chMsgPollS                                        ./build/obj/chmsg.o (symbol from plugin)
chMsgRelease                                      ./build/obj/chmsg.o (symbol from plugin)
chMsgSend                                         ./build/obj/chmsg.o (symbol from plugin)
chMsgWaitS                                        ./build/obj/chmsg.o (symbol from plugin)
chMsgWaitTimeoutS                                 ./build/obj/chmsg.o (symbol from plugin)
chMtxLock                                         ./build/obj/chmtx.o (symbol from plugin)
                                                  ./build/obj/chmemheaps.o (symbol from plugin)
                                                  ./build/obj/hal_spi.o (symbol from plugin)
chMtxLockS                                        ./build/obj/chmtx.o (symbol from plugin)
                                                  ./build/obj/chcond.o (symbol from plugin)
chMtxObjectInit                                   ./build/obj/chmtx.o (symbol from plugin)
                                                  ./build/obj/chmemheaps.o (symbol from plugin)
                                                  ./build/obj/hal_spi.o (symbol from plugin)
chMtxTryLock                                      ./build/obj/chmtx.o (symbol from plugin)
chMtxTryLockS                                     ./build/obj/chmtx.o (symbol from plugin)
chMtxUnlock                                       ./build/obj/chmtx.o (symbol from plugin)
                                                  ./build/obj/chmemheaps.o (symbol from plugin)
                                                  ./build/obj/hal_spi.o (symbol from plugin)
chMtxUnlockAll                                    ./build/obj/chmtx.o (symbol from plugin)
chMtxUnlockAllS                                   ./build/obj/chmtx.o (symbol from plugin)
chMtxUnlockS                                      ./build/obj/chmtx.o (symbol from plugin)
                                                  ./build/obj/chcond.o (symbol from plugin)
chPoolAlloc                                       ./build/obj/chmempools.o (symbol from plugin)
                                                  ./build/obj/digital_driver.o (symbol from plugin)
                                                  ./build/obj/chdynamic.o (symbol from plugin)
chPoolAllocI                                      ./build/obj/chmempools.o (symbol from plugin)
chPoolFree                                        ./build/obj/chmempools.o (symbol from plugin)
                                                  ./build/obj/digital_driver.o (symbol from plugin)
                                                  ./build/obj/chthreads.o (symbol from plugin)
chPoolFreeI                                       ./build/obj/chmempools.o (symbol from plugin)
chPoolLoadArray                                   ./build/obj/chmempools.o (symbol from plugin)
                                                  ./build/obj/digital_driver.o (symbol from plugin)
chPoolObjectInitAligned                           ./build/obj/chmempools.o (symbol from plugin)
                                                  ./build/obj/digital_driver.o (symbol from plugin)
chRFCUCollectFaultsI                              ./build/obj/chrfcu.o (symbol from plugin)
                                                  ./build/obj/chvt.o (symbol from plugin)
chRFCUGetAndClearFaultsI                          ./build/obj/chrfcu.o (symbol from plugin)
chRegFindThreadByName                             ./build/obj/chregistry.o (symbol from plugin)
chRegFindThreadByPointer                          ./build/obj/chregistry.o (symbol from plugin)
chRegFindThreadByWorkingArea                      ./build/obj/chregistry.o (symbol from plugin)
                                                  ./build/obj/chthreads.o (symbol from plugin)
chRegFirstThread                                  ./build/obj/chregistry.o (symbol from plugin)
                                                  ./build/obj/shell_cmd.o (symbol from plugin)
chRegNextThread                                   ./build/obj/chregistry.o (symbol from plugin)
                                                  ./build/obj/shell_cmd.o (symbol from plugin)
chSchDoPreemption                                 ./build/obj/chschd.o (symbol from plugin)
chSchDoYieldS                                     ./build/obj/chschd.o (symbol from plugin)
                                                  ./build/obj/chthreads.o (symbol from plugin)
chSchGoSleepS                                     ./build/obj/chschd.o (symbol from plugin)
                                                  ./build/obj/chmsg.o (symbol from plugin)
                                                  ./build/obj/chevents.o (symbol from plugin)
                                                  ./build/obj/chcond.o (symbol from plugin)
                                                  ./build/obj/chmtx.o (symbol from plugin)
                                                  ./build/obj/chsem.o (symbol from plugin)
                                                  ./build/obj/chthreads.o (symbol from plugin)
chSchGoSleepTimeoutS                              ./build/obj/chschd.o (symbol from plugin)
                                                  ./build/obj/chmsg.o (symbol from plugin)
                                                  ./build/obj/chevents.o (symbol from plugin)
                                                  ./build/obj/chcond.o (symbol from plugin)
                                                  ./build/obj/chsem.o (symbol from plugin)
                                                  ./build/obj/chthreads.o (symbol from plugin)
chSchIsPreemptionRequired                         ./build/obj/chschd.o (symbol from plugin)
                                                  ./build/obj/chcore.o (symbol from plugin)
chSchPreemption                                   ./build/obj/chschd.o (symbol from plugin)
chSchReadyI                                       ./build/obj/chschd.o (symbol from plugin)
                                                  ./build/obj/chmsg.o (symbol from plugin)
                                                  ./build/obj/chevents.o (symbol from plugin)
                                                  ./build/obj/chcond.o (symbol from plugin)
                                                  ./build/obj/chmtx.o (symbol from plugin)
                                                  ./build/obj/chsem.o (symbol from plugin)
                                                  ./build/obj/chthreads.o (symbol from plugin)
chSchRescheduleS                                  ./build/obj/chschd.o (symbol from plugin)
                                                  ./build/obj/chmempools.o (symbol from plugin)
                                                  ./build/obj/chmboxes.o (symbol from plugin)
                                                  ./build/obj/chevents.o (symbol from plugin)
                                                  ./build/obj/chcond.o (symbol from plugin)
                                                  ./build/obj/chmtx.o (symbol from plugin)
                                                  ./build/obj/chsem.o (symbol from plugin)
                                                  ./build/obj/chthreads.o (symbol from plugin)
                                                  ./build/obj/chsys.o (symbol from plugin)
                                                  ./build/obj/hal_usb.o (symbol from plugin)
                                                  ./build/obj/hal_spi.o (symbol from plugin)
                                                  ./build/obj/hal_sio.o (symbol from plugin)
                                                  ./build/obj/hal_serial_usb.o (symbol from plugin)
chSchSelectFirst                                  ./build/obj/chschd.o (symbol from plugin)
                                                  ./build/obj/chcore.o (symbol from plugin)
chSchWakeupS                                      ./build/obj/chschd.o (symbol from plugin)
                                                  ./build/obj/chdynamic.o (symbol from plugin)
                                                  ./build/obj/chmsg.o (symbol from plugin)
                                                  ./build/obj/chcond.o (symbol from plugin)
                                                  ./build/obj/chsem.o (symbol from plugin)
                                                  ./build/obj/chthreads.o (symbol from plugin)
chSemAddCounterI                                  ./build/obj/chsem.o (symbol from plugin)
chSemObjectInit                                   ./build/obj/chsem.o (symbol from plugin)
                                                  ./build/obj/chmempools.o (symbol from plugin)
chSemResetWithMessage                             ./build/obj/chsem.o (symbol from plugin)
chSemResetWithMessageI                            ./build/obj/chsem.o (symbol from plugin)
chSemSignal                                       ./build/obj/chsem.o (symbol from plugin)
chSemSignalI                                      ./build/obj/chsem.o (symbol from plugin)
                                                  ./build/obj/chmempools.o (symbol from plugin)
chSemSignalWait                                   ./build/obj/chsem.o (symbol from plugin)
chSemWait                                         ./build/obj/chsem.o (symbol from plugin)
chSemWaitS                                        ./build/obj/chsem.o (symbol from plugin)
chSemWaitTimeout                                  ./build/obj/chsem.o (symbol from plugin)
chSemWaitTimeoutS                                 ./build/obj/chsem.o (symbol from plugin)
                                                  ./build/obj/chmempools.o (symbol from plugin)
chSysGetIdleThreadX                               ./build/obj/chsys.o (symbol from plugin)
                                                  ./build/obj/chschd.o (symbol from plugin)
chSysGetStatusAndLockX                            ./build/obj/chsys.o (symbol from plugin)
chSysHalt                                         ./build/obj/chsys.o (symbol from plugin)
                                                  ./build/obj/digital_driver.o (symbol from plugin)
                                                  ./build/obj/syscalls.o (symbol from plugin)
                                                  ./build/obj/chcore.o (symbol from plugin)
                                                  ./build/obj/chmempools.o (symbol from plugin)
                                                  ./build/obj/chmemheaps.o (symbol from plugin)
                                                  ./build/obj/chmemcore.o (symbol from plugin)
                                                  ./build/obj/chmboxes.o (symbol from plugin)
                                                  ./build/obj/chdynamic.o (symbol from plugin)
                                                  ./build/obj/chmsg.o (symbol from plugin)
                                                  ./build/obj/chevents.o (symbol from plugin)
                                                  ./build/obj/chcond.o (symbol from plugin)
                                                  ./build/obj/chmtx.o (symbol from plugin)
                                                  ./build/obj/chsem.o (symbol from plugin)
                                                  ./build/obj/chregistry.o (symbol from plugin)
                                                  ./build/obj/chthreads.o (symbol from plugin)
                                                  ./build/obj/chinstances.o (symbol from plugin)
                                                  ./build/obj/chschd.o (symbol from plugin)
                                                  ./build/obj/chvt.o (symbol from plugin)
                                                  ./build/obj/chdebug.o (symbol from plugin)
                                                  ./build/obj/hal_usb_lld.o (symbol from plugin)
                                                  ./build/obj/hal_sio_lld.o (symbol from plugin)
                                                  ./build/obj/hal_gpt_lld.o (symbol from plugin)
                                                  ./build/obj/hal_spi_v2_lld.o (symbol from plugin)
                                                  ./build/obj/hal_pal_lld.o (symbol from plugin)
                                                  ./build/obj/stm32_dma.o (symbol from plugin)
                                                  ./build/obj/nvic.o (symbol from plugin)
                                                  ./build/obj/hal_usb.o (symbol from plugin)
                                                  ./build/obj/hal_spi.o (symbol from plugin)
                                                  ./build/obj/hal_sio.o (symbol from plugin)
                                                  ./build/obj/hal_serial_usb.o (symbol from plugin)
                                                  ./build/obj/hal_pal.o (symbol from plugin)
                                                  ./build/obj/hal_gpt.o (symbol from plugin)
                                                  ./build/obj/hal_flash.o (symbol from plugin)
                                                  ./build/obj/hal_queues.o (symbol from plugin)
                                                  ./build/obj/hal_buffers.o (symbol from plugin)
                                                  ./build/obj/hal_buffered_serial.o (symbol from plugin)
                                                  ./build/obj/hal_st.o (symbol from plugin)
chSysInit                                         ./build/obj/chsys.o (symbol from plugin)
                                                  ./build/obj/main.o (symbol from plugin)
chSysIntegrityCheckI                              ./build/obj/chsys.o (symbol from plugin)
chSysIsCounterWithinX                             ./build/obj/chsys.o (symbol from plugin)
chSysPolledDelayX                                 ./build/obj/chsys.o (symbol from plugin)
chSysRestoreStatusX                               ./build/obj/chsys.o (symbol from plugin)
chSysTimerHandlerI                                ./build/obj/chsys.o (symbol from plugin)
                                                  ./build/obj/hal_st_lld.o (symbol from plugin)
chSysWaitSystemState                              ./build/obj/chsys.o (symbol from plugin)
chTMChainMeasurementToX                           ./build/obj/chtm.o (symbol from plugin)
                                                  ./build/obj/chstats.o (symbol from plugin)
chTMObjectInit                                    ./build/obj/chtm.o (symbol from plugin)
                                                  ./build/obj/chthreads.o (symbol from plugin)
                                                  ./build/obj/chinstances.o (symbol from plugin)
                                                  ./build/obj/chsys.o (symbol from plugin)
chTMStartMeasurementX                             ./build/obj/chtm.o (symbol from plugin)
                                                  ./build/obj/chstats.o (symbol from plugin)
                                                  ./build/obj/chinstances.o (symbol from plugin)
                                                  ./build/obj/chsys.o (symbol from plugin)
chTMStopMeasurementX                              ./build/obj/chtm.o (symbol from plugin)
                                                  ./build/obj/chstats.o (symbol from plugin)
                                                  ./build/obj/chsys.o (symbol from plugin)
chThdAddRef                                       ./build/obj/chthreads.o (symbol from plugin)
chThdCreate                                       ./build/obj/chthreads.o (symbol from plugin)
chThdCreateFromHeap                               ./build/obj/chdynamic.o (symbol from plugin)
                                                  ./build/obj/main.o (symbol from plugin)
chThdCreateFromMemoryPool                         ./build/obj/chdynamic.o (symbol from plugin)
chThdCreateI                                      ./build/obj/chthreads.o (symbol from plugin)
                                                  ./build/obj/chinstances.o (symbol from plugin)
chThdCreateStatic                                 ./build/obj/chthreads.o (symbol from plugin)
                                                  ./build/obj/digital_driver.o (symbol from plugin)
                                                  ./build/obj/main.o (symbol from plugin)
chThdCreateSuspended                              ./build/obj/chthreads.o (symbol from plugin)
chThdCreateSuspendedI                             ./build/obj/chthreads.o (symbol from plugin)
                                                  ./build/obj/chdynamic.o (symbol from plugin)
chThdDequeueAllI                                  ./build/obj/chthreads.o (symbol from plugin)
                                                  ./build/obj/chmboxes.o (symbol from plugin)
                                                  ./build/obj/hal_pal_lld.o (symbol from plugin)
                                                  ./build/obj/stm32_isr.o (symbol from plugin)
                                                  ./build/obj/hal_serial_usb.o (symbol from plugin)
                                                  ./build/obj/hal_queues.o (symbol from plugin)
                                                  ./build/obj/hal_buffers.o (symbol from plugin)
chThdDequeueNextI                                 ./build/obj/chthreads.o (symbol from plugin)
                                                  ./build/obj/chmboxes.o (symbol from plugin)
                                                  ./build/obj/hal_queues.o (symbol from plugin)
                                                  ./build/obj/hal_buffers.o (symbol from plugin)
chThdEnqueueTimeoutS                              ./build/obj/chthreads.o (symbol from plugin)
                                                  ./build/obj/chmboxes.o (symbol from plugin)
                                                  ./build/obj/hal_pal.o (symbol from plugin)
                                                  ./build/obj/hal_queues.o (symbol from plugin)
                                                  ./build/obj/hal_buffers.o (symbol from plugin)
chThdExit                                         C:\Users\zerog\AppData\Local\Temp\APS_DIGITAL_CGG.elf.PLIgTd.ltrans0.ltrans.o
                                                  ./build/obj/chthreads.o (symbol from plugin)
                                                  ./build/obj/chcoreasm.o
chThdExitS                                        ./build/obj/chthreads.o (symbol from plugin)
                                                  ./build/obj/shell.o (symbol from plugin)
chThdRelease                                      ./build/obj/chthreads.o (symbol from plugin)
                                                  ./build/obj/chregistry.o (symbol from plugin)
chThdResume                                       ./build/obj/chthreads.o (symbol from plugin)
chThdResumeI                                      ./build/obj/chthreads.o (symbol from plugin)
                                                  ./build/obj/hal_sio_lld.o (symbol from plugin)
                                                  ./build/obj/hal_spi_v2_lld.o (symbol from plugin)
                                                  ./build/obj/hal_spi.o (symbol from plugin)
                                                  ./build/obj/hal_sio.o (symbol from plugin)
chThdResumeS                                      ./build/obj/chthreads.o (symbol from plugin)
chThdSetPriority                                  ./build/obj/chthreads.o (symbol from plugin)
chThdSleep                                        ./build/obj/chthreads.o (symbol from plugin)
                                                  ./build/obj/AD8460.o (symbol from plugin)
                                                  ./build/obj/digital_driver.o (symbol from plugin)
                                                  ./build/obj/main.o (symbol from plugin)
                                                  ./build/obj/shell.o (symbol from plugin)
                                                  ./build/obj/hal_usb.o (symbol from plugin)
                                                  ./build/obj/hal_flash.o (symbol from plugin)
chThdSleepUntil                                   ./build/obj/chthreads.o (symbol from plugin)
chThdSleepUntilWindowed                           ./build/obj/chthreads.o (symbol from plugin)
chThdStart                                        ./build/obj/chthreads.o (symbol from plugin)
chThdSuspendS                                     ./build/obj/chthreads.o (symbol from plugin)
chThdSuspendTimeoutS                              ./build/obj/chthreads.o (symbol from plugin)
                                                  ./build/obj/hal_spi.o (symbol from plugin)
                                                  ./build/obj/hal_sio.o (symbol from plugin)
chThdTerminate                                    ./build/obj/chthreads.o (symbol from plugin)
chThdWait                                         ./build/obj/chthreads.o (symbol from plugin)
chThdYield                                        ./build/obj/chthreads.o (symbol from plugin)
chVTDoResetI                                      ./build/obj/chvt.o (symbol from plugin)
                                                  ./build/obj/chschd.o (symbol from plugin)
chVTDoSetContinuousI                              ./build/obj/chvt.o (symbol from plugin)
chVTDoSetI                                        ./build/obj/chvt.o (symbol from plugin)
                                                  ./build/obj/chschd.o (symbol from plugin)
chVTDoTickI                                       ./build/obj/chvt.o (symbol from plugin)
                                                  ./build/obj/chsys.o (symbol from plugin)
chVTGetRemainingIntervalI                         ./build/obj/chvt.o (symbol from plugin)
chVTGetTimeStampI                                 ./build/obj/chvt.o (symbol from plugin)
chVTResetTimeStampI                               ./build/obj/chvt.o (symbol from plugin)
ch_core0_cfg                                      ./build/obj/chsys.o (symbol from plugin)
ch_debug                                          ./build/obj/chregistry.o (symbol from plugin)
                                                  ./build/obj/chinstances.o (symbol from plugin)
ch_memcore                                        ./build/obj/chmemcore.o (symbol from plugin)
ch_system                                         ./build/obj/chsys.o (symbol from plugin)
                                                  ./build/obj/chtm.o (symbol from plugin)
                                                  ./build/obj/chinstances.o (symbol from plugin)
chcond.c.9fa04696                                 C:\Users\zerog\AppData\Local\Temp\ccaRhZWR.debug.temp.o
chcore.c.b55a5289                                 C:\Users\zerog\AppData\Local\Temp\cci9o7Cf.debug.temp.o
                                                  C:\Users\zerog\AppData\Local\Temp\APS_DIGITAL_CGG.elf.PLIgTd.ltrans0.ltrans.o
chcoreapi.c.d910958c                              C:\Users\zerog\AppData\Local\Temp\ccYQeU1h.debug.temp.o
chdebug.c.c20c48de                                C:\Users\zerog\AppData\Local\Temp\ccOJBQxi.debug.temp.o
                                                  C:\Users\zerog\AppData\Local\Temp\APS_DIGITAL_CGG.elf.PLIgTd.ltrans0.ltrans.o
chdynamic.c.fd75bcaf                              C:\Users\zerog\AppData\Local\Temp\ccUAJlU1.debug.temp.o
                                                  C:\Users\zerog\AppData\Local\Temp\APS_DIGITAL_CGG.elf.PLIgTd.ltrans0.ltrans.o
chevents.c.61aab498                               C:\Users\zerog\AppData\Local\Temp\ccKVajfV.debug.temp.o
                                                  C:\Users\zerog\AppData\Local\Temp\APS_DIGITAL_CGG.elf.PLIgTd.ltrans0.ltrans.o
chinstances.c.97a5fa78                            C:\Users\zerog\AppData\Local\Temp\ccEmOf7u.debug.temp.o
                                                  C:\Users\zerog\AppData\Local\Temp\APS_DIGITAL_CGG.elf.PLIgTd.ltrans0.ltrans.o
chmboxes.c.1b0838bd                               C:\Users\zerog\AppData\Local\Temp\ccubp4g5.debug.temp.o
                                                  C:\Users\zerog\AppData\Local\Temp\APS_DIGITAL_CGG.elf.PLIgTd.ltrans0.ltrans.o
chmemcore.c.3b540bcf                              C:\Users\zerog\AppData\Local\Temp\ccOXoiP7.debug.temp.o
                                                  C:\Users\zerog\AppData\Local\Temp\APS_DIGITAL_CGG.elf.PLIgTd.ltrans0.ltrans.o
chmemheaps.c.efb3719a                             C:\Users\zerog\AppData\Local\Temp\cc8Jowna.debug.temp.o
                                                  C:\Users\zerog\AppData\Local\Temp\APS_DIGITAL_CGG.elf.PLIgTd.ltrans0.ltrans.o
chmempools.c.4ba2577e                             C:\Users\zerog\AppData\Local\Temp\ccIWTj0c.debug.temp.o
                                                  C:\Users\zerog\AppData\Local\Temp\APS_DIGITAL_CGG.elf.PLIgTd.ltrans0.ltrans.o
chmsg.c.197f6233                                  C:\Users\zerog\AppData\Local\Temp\cck03CxY.debug.temp.o
chmtx.c.2cc02536                                  C:\Users\zerog\AppData\Local\Temp\ccUoz1sO.debug.temp.o
                                                  C:\Users\zerog\AppData\Local\Temp\APS_DIGITAL_CGG.elf.PLIgTd.ltrans0.ltrans.o
chp_OPTICAL                                       ./build/obj/main.o (symbol from plugin)
chp_USB                                           ./build/obj/main.o (symbol from plugin)
chp_shell                                         ./build/obj/main.o (symbol from plugin)
                                                  ./build/obj/digital_driver.o (symbol from plugin)
chprintf                                          ./build/obj/chprintf.o (symbol from plugin)
                                                  ./build/obj/digital_driver.o (symbol from plugin)
                                                  ./build/obj/main.o (symbol from plugin)
                                                  ./build/obj/shell_cmd.o (symbol from plugin)
                                                  ./build/obj/shell.o (symbol from plugin)
chprintf.c.8443f0b2                               C:\Users\zerog\AppData\Local\Temp\ccEy4Gqk.debug.temp.o
                                                  C:\Users\zerog\AppData\Local\Temp\APS_DIGITAL_CGG.elf.PLIgTd.ltrans0.ltrans.o
chregistry.c.8ef5b2a1                             C:\Users\zerog\AppData\Local\Temp\ccYooIzH.debug.temp.o
                                                  C:\Users\zerog\AppData\Local\Temp\APS_DIGITAL_CGG.elf.PLIgTd.ltrans0.ltrans.o
chrfcu.c.b781875a                                 C:\Users\zerog\AppData\Local\Temp\ccGJFprf.debug.temp.o
                                                  C:\Users\zerog\AppData\Local\Temp\APS_DIGITAL_CGG.elf.PLIgTd.ltrans0.ltrans.o
chscanf                                           ./build/obj/chscanf.o (symbol from plugin)
chscanf.c.9a6867ea                                C:\Users\zerog\AppData\Local\Temp\cck8fXdn.debug.temp.o
chschd.c.b93d333f                                 C:\Users\zerog\AppData\Local\Temp\cc0zZg9r.debug.temp.o
                                                  C:\Users\zerog\AppData\Local\Temp\APS_DIGITAL_CGG.elf.PLIgTd.ltrans0.ltrans.o
chsem.c.17fb7797                                  C:\Users\zerog\AppData\Local\Temp\ccEWQ3YK.debug.temp.o
chsnprintf                                        ./build/obj/chprintf.o (symbol from plugin)
chsnscanf                                         ./build/obj/chscanf.o (symbol from plugin)
chstats.c.6fbf08d4                                C:\Users\zerog\AppData\Local\Temp\cciRVmaE.debug.temp.o
                                                  C:\Users\zerog\AppData\Local\Temp\APS_DIGITAL_CGG.elf.PLIgTd.ltrans0.ltrans.o
chsys.c.835d4f49                                  C:\Users\zerog\AppData\Local\Temp\ccyJJYkc.debug.temp.o
                                                  C:\Users\zerog\AppData\Local\Temp\APS_DIGITAL_CGG.elf.PLIgTd.ltrans0.ltrans.o
chthreads.c.7ebed146                              C:\Users\zerog\AppData\Local\Temp\cci9Ce5x.debug.temp.o
                                                  C:\Users\zerog\AppData\Local\Temp\APS_DIGITAL_CGG.elf.PLIgTd.ltrans0.ltrans.o
chtm.c.b5cff383                                   C:\Users\zerog\AppData\Local\Temp\ccivMN7A.debug.temp.o
                                                  C:\Users\zerog\AppData\Local\Temp\APS_DIGITAL_CGG.elf.PLIgTd.ltrans0.ltrans.o
chtrace.c.6592e40e                                C:\Users\zerog\AppData\Local\Temp\ccSl4jKl.debug.temp.o
chvprintf                                         ./build/obj/chprintf.o (symbol from plugin)
chvscanf                                          ./build/obj/chscanf.o (symbol from plugin)
chvsnprintf                                       ./build/obj/chprintf.o (symbol from plugin)
chvsnscanf                                        ./build/obj/chscanf.o (symbol from plugin)
chvt.c.9f328f24                                   C:\Users\zerog\AppData\Local\Temp\ccWXwNWo.debug.temp.o
                                                  C:\Users\zerog\AppData\Local\Temp\APS_DIGITAL_CGG.elf.PLIgTd.ltrans0.ltrans.o
cleanup_glue                                      c:/chibistudio/tools/gnu tools arm embedded/10.3 2021.07/bin/../lib/gcc/arm-none-eabi/10.3.1/../../../../arm-none-eabi/lib/thumb/v7e-m/nofp\libg.a(lib_a-reent.o)
clear_to_run_flag                                 ./build/obj/main.o (symbol from plugin)
                                                  ./build/obj/digital_driver.o (symbol from plugin)
cmd_DD_test                                       ./build/obj/digital_driver.o (symbol from plugin)
                                                  ./build/obj/main.o (symbol from plugin)
cmd_selftest                                      ./build/obj/main.o (symbol from plugin)
crt1.c.40f9f977                                   C:\Users\zerog\AppData\Local\Temp\ccOf8eYl.debug.temp.o
                                                  C:\Users\zerog\AppData\Local\Temp\APS_DIGITAL_CGG.elf.PLIgTd.ltrans0.ltrans.o
delta                                             ./build/obj/main.o (symbol from plugin)
digital_driver.c.f7f7f6cd                         C:\Users\zerog\AppData\Local\Temp\ccm7IWdM.debug.temp.o
                                                  C:\Users\zerog\AppData\Local\Temp\APS_DIGITAL_CGG.elf.PLIgTd.ltrans0.ltrans.o
dmaInit                                           ./build/obj/stm32_dma.o (symbol from plugin)
                                                  ./build/obj/hal_lld.o (symbol from plugin)
dmaServeInterrupt                                 ./build/obj/stm32_dma.o (symbol from plugin)
dmaSetRequestSource                               ./build/obj/stm32_dma.o (symbol from plugin)
                                                  ./build/obj/hal_spi_v2_lld.o (symbol from plugin)
dmaStreamAlloc                                    ./build/obj/stm32_dma.o (symbol from plugin)
dmaStreamAllocI                                   ./build/obj/stm32_dma.o (symbol from plugin)
                                                  ./build/obj/hal_spi_v2_lld.o (symbol from plugin)
dmaStreamFree                                     ./build/obj/stm32_dma.o (symbol from plugin)
dmaStreamFreeI                                    ./build/obj/stm32_dma.o (symbol from plugin)
                                                  ./build/obj/hal_spi_v2_lld.o (symbol from plugin)
errno                                             c:/chibistudio/tools/gnu tools arm embedded/10.3 2021.07/bin/../lib/gcc/arm-none-eabi/10.3.1/../../../../arm-none-eabi/lib/thumb/v7e-m/nofp\libg.a(lib_a-reent.o)
                                                  c:/chibistudio/tools/gnu tools arm embedded/10.3 2021.07/bin/../lib/gcc/arm-none-eabi/10.3.1/../../../../arm-none-eabi/lib/thumb/v7e-m/nofp\libg.a(lib_a-signalr.o)
exp2                                              c:/chibistudio/tools/gnu tools arm embedded/10.3 2021.07/bin/../lib/gcc/arm-none-eabi/10.3.1/../../../../arm-none-eabi/lib/thumb/v7e-m/nofp\libm.a(lib_a-w_exp2.o)
                                                  C:\Users\zerog\AppData\Local\Temp\APS_DIGITAL_CGG.elf.PLIgTd.ltrans0.ltrans.o
                                                  ./build/obj/digital_driver.o (symbol from plugin)
fabs                                              c:/chibistudio/tools/gnu tools arm embedded/10.3 2021.07/bin/../lib/gcc/arm-none-eabi/10.3.1/../../../../arm-none-eabi/lib/thumb/v7e-m/nofp\libm.a(lib_a-s_fabs.o)
                                                  c:/chibistudio/tools/gnu tools arm embedded/10.3 2021.07/bin/../lib/gcc/arm-none-eabi/10.3.1/../../../../arm-none-eabi/lib/thumb/v7e-m/nofp\libm.a(lib_a-e_pow.o)
fclose                                            c:/chibistudio/tools/gnu tools arm embedded/10.3 2021.07/bin/../lib/gcc/arm-none-eabi/10.3.1/../../../../arm-none-eabi/lib/thumb/v7e-m/nofp\libg.a(lib_a-fclose.o)
fflush                                            c:/chibistudio/tools/gnu tools arm embedded/10.3 2021.07/bin/../lib/gcc/arm-none-eabi/10.3.1/../../../../arm-none-eabi/lib/thumb/v7e-m/nofp\libg.a(lib_a-fflush.o)
finite                                            c:/chibistudio/tools/gnu tools arm embedded/10.3 2021.07/bin/../lib/gcc/arm-none-eabi/10.3.1/../../../../arm-none-eabi/lib/thumb/v7e-m/nofp\libm.a(lib_a-s_finite.o)
                                                  c:/chibistudio/tools/gnu tools arm embedded/10.3 2021.07/bin/../lib/gcc/arm-none-eabi/10.3.1/../../../../arm-none-eabi/lib/thumb/v7e-m/nofp\libm.a(lib_a-w_pow.o)
fiprintf                                          c:/chibistudio/tools/gnu tools arm embedded/10.3 2021.07/bin/../lib/gcc/arm-none-eabi/10.3.1/../../../../arm-none-eabi/lib/thumb/v7e-m/nofp\libg.a(lib_a-fiprintf.o)
                                                  c:/chibistudio/tools/gnu tools arm embedded/10.3 2021.07/bin/../lib/gcc/arm-none-eabi/10.3.1/../../../../arm-none-eabi/lib/thumb/v7e-m/nofp\libg.a(lib_a-assert.o)
flashGetAddressOffset                             ./build/obj/hal_flash.o (symbol from plugin)
flashGetOffsetAddress                             ./build/obj/hal_flash.o (symbol from plugin)
flashGetOffsetSector                              ./build/obj/hal_flash.o (symbol from plugin)
flashGetSectorOffset                              ./build/obj/hal_flash.o (symbol from plugin)
flashGetSectorSize                                ./build/obj/hal_flash.o (symbol from plugin)
flashWaitErase                                    ./build/obj/hal_flash.o (symbol from plugin)
fputwc                                            c:/chibistudio/tools/gnu tools arm embedded/10.3 2021.07/bin/../lib/gcc/arm-none-eabi/10.3.1/../../../../arm-none-eabi/lib/thumb/v7e-m/nofp\libg.a(lib_a-fputwc.o)
gptChangeInterval                                 ./build/obj/hal_gpt.o (symbol from plugin)
gptInit                                           ./build/obj/hal_gpt.o (symbol from plugin)
                                                  ./build/obj/hal.o (symbol from plugin)
gptObjectInit                                     ./build/obj/hal_gpt.o (symbol from plugin)
                                                  ./build/obj/hal_gpt_lld.o (symbol from plugin)
gptPolledDelay                                    ./build/obj/hal_gpt.o (symbol from plugin)
gptStart                                          ./build/obj/hal_gpt.o (symbol from plugin)
gptStartContinuous                                ./build/obj/hal_gpt.o (symbol from plugin)
gptStartContinuousI                               ./build/obj/hal_gpt.o (symbol from plugin)
gptStartOneShot                                   ./build/obj/hal_gpt.o (symbol from plugin)
gptStartOneShotI                                  ./build/obj/hal_gpt.o (symbol from plugin)
gptStop                                           ./build/obj/hal_gpt.o (symbol from plugin)
gptStopTimer                                      ./build/obj/hal_gpt.o (symbol from plugin)
gptStopTimerI                                     ./build/obj/hal_gpt.o (symbol from plugin)
gpt_lld_init                                      ./build/obj/hal_gpt_lld.o (symbol from plugin)
                                                  ./build/obj/hal_gpt.o (symbol from plugin)
gpt_lld_polled_delay                              ./build/obj/hal_gpt_lld.o (symbol from plugin)
                                                  ./build/obj/hal_gpt.o (symbol from plugin)
gpt_lld_serve_interrupt                           ./build/obj/hal_gpt_lld.o (symbol from plugin)
                                                  ./build/obj/stm32_isr.o (symbol from plugin)
gpt_lld_start                                     ./build/obj/hal_gpt_lld.o (symbol from plugin)
                                                  ./build/obj/hal_gpt.o (symbol from plugin)
gpt_lld_start_timer                               ./build/obj/hal_gpt_lld.o (symbol from plugin)
                                                  ./build/obj/hal_gpt.o (symbol from plugin)
gpt_lld_stop                                      ./build/obj/hal_gpt_lld.o (symbol from plugin)
                                                  ./build/obj/hal_gpt.o (symbol from plugin)
gpt_lld_stop_timer                                ./build/obj/hal_gpt_lld.o (symbol from plugin)
                                                  ./build/obj/hal_gpt.o (symbol from plugin)
hal.c.ed89870b                                    C:\Users\zerog\AppData\Local\Temp\cc87Y6jq.debug.temp.o
                                                  C:\Users\zerog\AppData\Local\Temp\APS_DIGITAL_CGG.elf.PLIgTd.ltrans0.ltrans.o
halInit                                           ./build/obj/hal.o (symbol from plugin)
                                                  ./build/obj/main.o (symbol from plugin)
hal_buffered_serial.c.b5a7b5e5                    C:\Users\zerog\AppData\Local\Temp\ccQKlmAy.debug.temp.o
hal_buffers.c.701d60b6                            C:\Users\zerog\AppData\Local\Temp\ccmnLjNC.debug.temp.o
                                                  C:\Users\zerog\AppData\Local\Temp\APS_DIGITAL_CGG.elf.PLIgTd.ltrans0.ltrans.o
hal_efl_lld.c.e5c3c70d                            C:\Users\zerog\AppData\Local\Temp\ccqdjA1v.debug.temp.o
hal_flash.c.d2712541                              C:\Users\zerog\AppData\Local\Temp\ccilp0WL.debug.temp.o
hal_gpt.c.9bf473d7                                C:\Users\zerog\AppData\Local\Temp\ccyJdIeV.debug.temp.o
                                                  C:\Users\zerog\AppData\Local\Temp\APS_DIGITAL_CGG.elf.PLIgTd.ltrans0.ltrans.o
hal_gpt_lld.c.8f44f5ee                            C:\Users\zerog\AppData\Local\Temp\ccAokFMS.debug.temp.o
                                                  C:\Users\zerog\AppData\Local\Temp\APS_DIGITAL_CGG.elf.PLIgTd.ltrans0.ltrans.o
hal_lld.c.571a36c8                                C:\Users\zerog\AppData\Local\Temp\cccunSus.debug.temp.o
                                                  C:\Users\zerog\AppData\Local\Temp\APS_DIGITAL_CGG.elf.PLIgTd.ltrans0.ltrans.o
hal_lld_init                                      ./build/obj/hal_lld.o (symbol from plugin)
                                                  ./build/obj/hal.o (symbol from plugin)
hal_mmcsd.c.7c03ef9e                              C:\Users\zerog\AppData\Local\Temp\ccqxjRAQ.debug.temp.o
hal_pal.c.8165bbb9                                C:\Users\zerog\AppData\Local\Temp\ccke5lEZ.debug.temp.o
hal_pal_lld.c.e0b37295                            C:\Users\zerog\AppData\Local\Temp\ccWHOCKG.debug.temp.o
                                                  C:\Users\zerog\AppData\Local\Temp\APS_DIGITAL_CGG.elf.PLIgTd.ltrans0.ltrans.o
hal_queues.c.9cc50971                             C:\Users\zerog\AppData\Local\Temp\cckm59mH.debug.temp.o
hal_serial_usb.c.c33edcca                         C:\Users\zerog\AppData\Local\Temp\cc6IWZ33.debug.temp.o
                                                  C:\Users\zerog\AppData\Local\Temp\APS_DIGITAL_CGG.elf.PLIgTd.ltrans0.ltrans.o
hal_sio.c.3a74005c                                C:\Users\zerog\AppData\Local\Temp\ccSdODt8.debug.temp.o
                                                  C:\Users\zerog\AppData\Local\Temp\APS_DIGITAL_CGG.elf.PLIgTd.ltrans0.ltrans.o
hal_sio_lld.c.166fe9b6                            C:\Users\zerog\AppData\Local\Temp\cc8ZoyQW.debug.temp.o
                                                  C:\Users\zerog\AppData\Local\Temp\APS_DIGITAL_CGG.elf.PLIgTd.ltrans0.ltrans.o
hal_spi.c.4f67d459                                C:\Users\zerog\AppData\Local\Temp\ccgs7e0c.debug.temp.o
                                                  C:\Users\zerog\AppData\Local\Temp\APS_DIGITAL_CGG.elf.PLIgTd.ltrans0.ltrans.o
hal_spi_v2_lld.c.db223b00                         C:\Users\zerog\AppData\Local\Temp\ccufxHJK.debug.temp.o
                                                  C:\Users\zerog\AppData\Local\Temp\APS_DIGITAL_CGG.elf.PLIgTd.ltrans0.ltrans.o
hal_st.c.877d46c7                                 C:\Users\zerog\AppData\Local\Temp\ccurFesu.debug.temp.o
                                                  C:\Users\zerog\AppData\Local\Temp\APS_DIGITAL_CGG.elf.PLIgTd.ltrans0.ltrans.o
hal_st_lld.c.dc491b4f                             C:\Users\zerog\AppData\Local\Temp\cc2MfMIO.debug.temp.o
                                                  C:\Users\zerog\AppData\Local\Temp\APS_DIGITAL_CGG.elf.PLIgTd.ltrans0.ltrans.o
hal_usb.c.3491cbd8                                C:\Users\zerog\AppData\Local\Temp\ccEGqQwh.debug.temp.o
                                                  C:\Users\zerog\AppData\Local\Temp\APS_DIGITAL_CGG.elf.PLIgTd.ltrans0.ltrans.o
hal_usb_lld.c.24148865                            C:\Users\zerog\AppData\Local\Temp\cckqXmG0.debug.temp.o
                                                  C:\Users\zerog\AppData\Local\Temp\APS_DIGITAL_CGG.elf.PLIgTd.ltrans0.ltrans.o
ibqGetEmptyBufferI                                ./build/obj/hal_buffers.o (symbol from plugin)
                                                  ./build/obj/hal_serial_usb.o (symbol from plugin)
ibqGetFullBufferTimeout                           ./build/obj/hal_buffers.o (symbol from plugin)
ibqGetFullBufferTimeoutS                          ./build/obj/hal_buffers.o (symbol from plugin)
ibqGetTimeout                                     ./build/obj/hal_buffers.o (symbol from plugin)
                                                  ./build/obj/hal_serial_usb.o (symbol from plugin)
ibqObjectInit                                     ./build/obj/hal_buffers.o (symbol from plugin)
                                                  ./build/obj/hal_serial_usb.o (symbol from plugin)
ibqPostFullBufferI                                ./build/obj/hal_buffers.o (symbol from plugin)
                                                  ./build/obj/hal_serial_usb.o (symbol from plugin)
ibqReadTimeout                                    ./build/obj/hal_buffers.o (symbol from plugin)
                                                  ./build/obj/hal_serial_usb.o (symbol from plugin)
ibqReleaseEmptyBuffer                             ./build/obj/hal_buffers.o (symbol from plugin)
ibqReleaseEmptyBufferS                            ./build/obj/hal_buffers.o (symbol from plugin)
ibqResetI                                         ./build/obj/hal_buffers.o (symbol from plugin)
                                                  ./build/obj/hal_serial_usb.o (symbol from plugin)
iqGetI                                            ./build/obj/hal_queues.o (symbol from plugin)
iqGetTimeout                                      ./build/obj/hal_queues.o (symbol from plugin)
iqObjectInit                                      ./build/obj/hal_queues.o (symbol from plugin)
iqPutI                                            ./build/obj/hal_queues.o (symbol from plugin)
                                                  ./build/obj/hal_buffered_serial.o (symbol from plugin)
iqReadI                                           ./build/obj/hal_queues.o (symbol from plugin)
iqReadTimeout                                     ./build/obj/hal_queues.o (symbol from plugin)
iqResetI                                          ./build/obj/hal_queues.o (symbol from plugin)
irqDeinit                                         ./build/obj/stm32_isr.o (symbol from plugin)
irqInit                                           ./build/obj/stm32_isr.o (symbol from plugin)
                                                  ./build/obj/hal_lld.o (symbol from plugin)
localeconv                                        c:/chibistudio/tools/gnu tools arm embedded/10.3 2021.07/bin/../lib/gcc/arm-none-eabi/10.3.1/../../../../arm-none-eabi/lib/thumb/v7e-m/nofp\libg.a(lib_a-localeconv.o)
log                                               c:/chibistudio/tools/gnu tools arm embedded/10.3 2021.07/bin/../lib/gcc/arm-none-eabi/10.3.1/../../../../arm-none-eabi/lib/thumb/v7e-m/nofp\libm.a(lib_a-w_log.o)
                                                  C:\Users\zerog\AppData\Local\Temp\APS_DIGITAL_CGG.elf.PLIgTd.ltrans0.ltrans.o
                                                  ./build/obj/digital_driver.o (symbol from plugin)
main                                              C:\Users\zerog\AppData\Local\Temp\APS_DIGITAL_CGG.elf.PLIgTd.ltrans0.ltrans.o
                                                  ./build/obj/main.o (symbol from plugin)
                                                  ./build/obj/crt0_v7m.o
main.c.5c37fe26                                   C:\Users\zerog\AppData\Local\Temp\ccIK33rJ.debug.temp.o
                                                  C:\Users\zerog\AppData\Local\Temp\APS_DIGITAL_CGG.elf.PLIgTd.ltrans0.ltrans.o
memchr                                            c:/chibistudio/tools/gnu tools arm embedded/10.3 2021.07/bin/../lib/gcc/arm-none-eabi/10.3.1/../../../../arm-none-eabi/lib/thumb/v7e-m/nofp\libg.a(lib_a-memchr.o)
                                                  c:/chibistudio/tools/gnu tools arm embedded/10.3 2021.07/bin/../lib/gcc/arm-none-eabi/10.3.1/../../../../arm-none-eabi/lib/thumb/v7e-m/nofp\libg.a(lib_a-fvwrite.o)
                                                  c:/chibistudio/tools/gnu tools arm embedded/10.3 2021.07/bin/../lib/gcc/arm-none-eabi/10.3.1/../../../../arm-none-eabi/lib/thumb/v7e-m/nofp\libg.a(lib_a-vfiprintf.o)
memcpy                                            c:/chibistudio/tools/gnu tools arm embedded/10.3 2021.07/bin/../lib/gcc/arm-none-eabi/10.3.1/../../../../arm-none-eabi/lib/thumb/v7e-m/nofp\libg.a(lib_a-memcpy.o)
                                                  C:\Users\zerog\AppData\Local\Temp\APS_DIGITAL_CGG.elf.PLIgTd.ltrans0.ltrans.o
                                                  c:/chibistudio/tools/gnu tools arm embedded/10.3 2021.07/bin/../lib/gcc/arm-none-eabi/10.3.1/../../../../arm-none-eabi/lib/thumb/v7e-m/nofp\libg.a(lib_a-fvwrite.o)
                                                  c:/chibistudio/tools/gnu tools arm embedded/10.3 2021.07/bin/../lib/gcc/arm-none-eabi/10.3.1/../../../../arm-none-eabi/lib/thumb/v7e-m/nofp\libg.a(lib_a-mprec.o)
                                                  c:/chibistudio/tools/gnu tools arm embedded/10.3 2021.07/bin/../lib/gcc/arm-none-eabi/10.3.1/../../../../arm-none-eabi/lib/thumb/v7e-m/nofp\libg.a(lib_a-gdtoa-gethex.o)
                                                  c:/chibistudio/tools/gnu tools arm embedded/10.3 2021.07/bin/../lib/gcc/arm-none-eabi/10.3.1/../../../../arm-none-eabi/lib/thumb/v7e-m/nofp\libg.a(lib_a-strtod.o)
memmove                                           c:/chibistudio/tools/gnu tools arm embedded/10.3 2021.07/bin/../lib/gcc/arm-none-eabi/10.3.1/../../../../arm-none-eabi/lib/thumb/v7e-m/nofp\libg.a(lib_a-memmove.o)
                                                  c:/chibistudio/tools/gnu tools arm embedded/10.3 2021.07/bin/../lib/gcc/arm-none-eabi/10.3.1/../../../../arm-none-eabi/lib/thumb/v7e-m/nofp\libg.a(lib_a-reallocr.o)
                                                  c:/chibistudio/tools/gnu tools arm embedded/10.3 2021.07/bin/../lib/gcc/arm-none-eabi/10.3.1/../../../../arm-none-eabi/lib/thumb/v7e-m/nofp\libg.a(lib_a-fvwrite.o)
memset                                            c:/chibistudio/tools/gnu tools arm embedded/10.3 2021.07/bin/../lib/gcc/arm-none-eabi/10.3.1/../../../../arm-none-eabi/lib/thumb/v7e-m/nofp\libg.a(lib_a-memset.o)
                                                  C:\Users\zerog\AppData\Local\Temp\APS_DIGITAL_CGG.elf.PLIgTd.ltrans0.ltrans.o
                                                  c:/chibistudio/tools/gnu tools arm embedded/10.3 2021.07/bin/../lib/gcc/arm-none-eabi/10.3.1/../../../../arm-none-eabi/lib/thumb/v7e-m/nofp\libg.a(lib_a-findfp.o)
                                                  c:/chibistudio/tools/gnu tools arm embedded/10.3 2021.07/bin/../lib/gcc/arm-none-eabi/10.3.1/../../../../arm-none-eabi/lib/thumb/v7e-m/nofp\libg.a(lib_a-callocr.o)
memstreams.c.fe8a6447                             C:\Users\zerog\AppData\Local\Temp\cc0Hrd1p.debug.temp.o
msObjectInit                                      ./build/obj/memstreams.o (symbol from plugin)
                                                  ./build/obj/chscanf.o (symbol from plugin)
                                                  ./build/obj/chprintf.o (symbol from plugin)
nan                                               c:/chibistudio/tools/gnu tools arm embedded/10.3 2021.07/bin/../lib/gcc/arm-none-eabi/10.3.1/../../../../arm-none-eabi/lib/thumb/v7e-m/nofp\libm.a(lib_a-s_nan.o)
                                                  c:/chibistudio/tools/gnu tools arm embedded/10.3 2021.07/bin/../lib/gcc/arm-none-eabi/10.3.1/../../../../arm-none-eabi/lib/thumb/v7e-m/nofp\libg.a(lib_a-strtod.o)
                                                  c:/chibistudio/tools/gnu tools arm embedded/10.3 2021.07/bin/../lib/gcc/arm-none-eabi/10.3.1/../../../../arm-none-eabi/lib/thumb/v7e-m/nofp\libm.a(lib_a-w_log.o)
nanf                                              c:/chibistudio/tools/gnu tools arm embedded/10.3 2021.07/bin/../lib/gcc/arm-none-eabi/10.3.1/../../../../arm-none-eabi/lib/thumb/v7e-m/nofp\libg.a(lib_a-sf_nan.o)
                                                  c:/chibistudio/tools/gnu tools arm embedded/10.3 2021.07/bin/../lib/gcc/arm-none-eabi/10.3.1/../../../../arm-none-eabi/lib/thumb/v7e-m/nofp\libg.a(lib_a-strtod.o)
nullObjectInit                                    ./build/obj/nullstreams.o (symbol from plugin)
nullstreams.c.825689fc                            C:\Users\zerog\AppData\Local\Temp\ccgaQOSs.debug.temp.o
nvic.c.27579977                                   C:\Users\zerog\AppData\Local\Temp\ccOdrvfl.debug.temp.o
                                                  C:\Users\zerog\AppData\Local\Temp\APS_DIGITAL_CGG.elf.PLIgTd.ltrans0.ltrans.o
nvicClearPending                                  ./build/obj/nvic.o (symbol from plugin)
nvicDisableVector                                 ./build/obj/nvic.o (symbol from plugin)
                                                  ./build/obj/hal_usb_lld.o (symbol from plugin)
                                                  ./build/obj/stm32_dma.o (symbol from plugin)
                                                  ./build/obj/stm32_isr.o (symbol from plugin)
nvicEnableVector                                  ./build/obj/nvic.o (symbol from plugin)
                                                  ./build/obj/hal_usb_lld.o (symbol from plugin)
                                                  ./build/obj/stm32_dma.o (symbol from plugin)
                                                  ./build/obj/stm32_isr.o (symbol from plugin)
nvicInit                                          ./build/obj/nvic.o (symbol from plugin)
                                                  ./build/obj/hal_lld.o (symbol from plugin)
nvicSetPending                                    ./build/obj/nvic.o (symbol from plugin)
nvicSetSystemHandlerPriority                      ./build/obj/nvic.o (symbol from plugin)
obqFlush                                          ./build/obj/hal_buffers.o (symbol from plugin)
obqGetEmptyBufferTimeout                          ./build/obj/hal_buffers.o (symbol from plugin)
obqGetEmptyBufferTimeoutS                         ./build/obj/hal_buffers.o (symbol from plugin)
obqGetFullBufferI                                 ./build/obj/hal_buffers.o (symbol from plugin)
                                                  ./build/obj/hal_serial_usb.o (symbol from plugin)
obqObjectInit                                     ./build/obj/hal_buffers.o (symbol from plugin)
                                                  ./build/obj/hal_serial_usb.o (symbol from plugin)
obqPostFullBuffer                                 ./build/obj/hal_buffers.o (symbol from plugin)
obqPostFullBufferS                                ./build/obj/hal_buffers.o (symbol from plugin)
obqPutTimeout                                     ./build/obj/hal_buffers.o (symbol from plugin)
                                                  ./build/obj/hal_serial_usb.o (symbol from plugin)
obqReleaseEmptyBufferI                            ./build/obj/hal_buffers.o (symbol from plugin)
                                                  ./build/obj/hal_serial_usb.o (symbol from plugin)
obqResetI                                         ./build/obj/hal_buffers.o (symbol from plugin)
                                                  ./build/obj/hal_serial_usb.o (symbol from plugin)
obqTryFlushI                                      ./build/obj/hal_buffers.o (symbol from plugin)
                                                  ./build/obj/hal_serial_usb.o (symbol from plugin)
obqWriteTimeout                                   ./build/obj/hal_buffers.o (symbol from plugin)
                                                  ./build/obj/hal_serial_usb.o (symbol from plugin)
oqGetI                                            ./build/obj/hal_queues.o (symbol from plugin)
                                                  ./build/obj/hal_buffered_serial.o (symbol from plugin)
oqObjectInit                                      ./build/obj/hal_queues.o (symbol from plugin)
oqPutI                                            ./build/obj/hal_queues.o (symbol from plugin)
oqPutTimeout                                      ./build/obj/hal_queues.o (symbol from plugin)
oqResetI                                          ./build/obj/hal_queues.o (symbol from plugin)
oqWriteI                                          ./build/obj/hal_queues.o (symbol from plugin)
oqWriteTimeout                                    ./build/obj/hal_queues.o (symbol from plugin)
osal.c.4518b5d6                                   C:\Users\zerog\AppData\Local\Temp\cc2M7zq8.debug.temp.o
palReadBus                                        ./build/obj/hal_pal.o (symbol from plugin)
palSetBusMode                                     ./build/obj/hal_pal.o (symbol from plugin)
palSetLineCallbackI                               ./build/obj/hal_pal.o (symbol from plugin)
palSetPadCallbackI                                ./build/obj/hal_pal.o (symbol from plugin)
palWaitLineTimeout                                ./build/obj/hal_pal.o (symbol from plugin)
palWaitLineTimeoutS                               ./build/obj/hal_pal.o (symbol from plugin)
palWaitPadTimeout                                 ./build/obj/hal_pal.o (symbol from plugin)
palWaitPadTimeoutS                                ./build/obj/hal_pal.o (symbol from plugin)
palWriteBus                                       ./build/obj/hal_pal.o (symbol from plugin)
port_init                                         ./build/obj/chcore.o (symbol from plugin)
                                                  ./build/obj/chinstances.o (symbol from plugin)
pow                                               c:/chibistudio/tools/gnu tools arm embedded/10.3 2021.07/bin/../lib/gcc/arm-none-eabi/10.3.1/../../../../arm-none-eabi/lib/thumb/v7e-m/nofp\libm.a(lib_a-w_pow.o)
                                                  c:/chibistudio/tools/gnu tools arm embedded/10.3 2021.07/bin/../lib/gcc/arm-none-eabi/10.3.1/../../../../arm-none-eabi/lib/thumb/v7e-m/nofp\libm.a(lib_a-w_exp2.o)
raise                                             c:/chibistudio/tools/gnu tools arm embedded/10.3 2021.07/bin/../lib/gcc/arm-none-eabi/10.3.1/../../../../arm-none-eabi/lib/thumb/v7e-m/nofp\libg.a(lib_a-signal.o)
                                                  c:/chibistudio/tools/gnu tools arm embedded/10.3 2021.07/bin/../lib/gcc/arm-none-eabi/10.3.1/../../../../arm-none-eabi/lib/thumb/v7e-m/nofp\libg.a(lib_a-abort.o)
round                                             c:/chibistudio/tools/gnu tools arm embedded/10.3 2021.07/bin/../lib/gcc/arm-none-eabi/10.3.1/../../../../arm-none-eabi/lib/thumb/v7e-m/nofp\libm.a(lib_a-s_round.o)
                                                  C:\Users\zerog\AppData\Local\Temp\APS_DIGITAL_CGG.elf.PLIgTd.ltrans0.ltrans.o
                                                  ./build/obj/digital_driver.o (symbol from plugin)
scalbn                                            c:/chibistudio/tools/gnu tools arm embedded/10.3 2021.07/bin/../lib/gcc/arm-none-eabi/10.3.1/../../../../arm-none-eabi/lib/thumb/v7e-m/nofp\libm.a(lib_a-s_scalbn.o)
                                                  c:/chibistudio/tools/gnu tools arm embedded/10.3 2021.07/bin/../lib/gcc/arm-none-eabi/10.3.1/../../../../arm-none-eabi/lib/thumb/v7e-m/nofp\libm.a(lib_a-e_pow.o)
sduConfigureHookI                                 ./build/obj/hal_serial_usb.o (symbol from plugin)
                                                  ./build/obj/usbcfg.o (symbol from plugin)
sduControl                                        ./build/obj/hal_serial_usb.o (symbol from plugin)
sduDataReceived                                   ./build/obj/hal_serial_usb.o (symbol from plugin)
                                                  ./build/obj/usbcfg.o (symbol from plugin)
sduDataTransmitted                                ./build/obj/hal_serial_usb.o (symbol from plugin)
                                                  ./build/obj/usbcfg.o (symbol from plugin)
sduInit                                           ./build/obj/hal_serial_usb.o (symbol from plugin)
                                                  ./build/obj/hal.o (symbol from plugin)
sduInterruptTransmitted                           ./build/obj/hal_serial_usb.o (symbol from plugin)
                                                  ./build/obj/usbcfg.o (symbol from plugin)
sduObjectInit                                     ./build/obj/hal_serial_usb.o (symbol from plugin)
                                                  ./build/obj/main.o (symbol from plugin)
sduRequestsHook                                   ./build/obj/hal_serial_usb.o (symbol from plugin)
                                                  ./build/obj/usbcfg.o (symbol from plugin)
sduSOFHookI                                       ./build/obj/hal_serial_usb.o (symbol from plugin)
                                                  ./build/obj/usbcfg.o (symbol from plugin)
sduStart                                          ./build/obj/hal_serial_usb.o (symbol from plugin)
                                                  ./build/obj/main.o (symbol from plugin)
sduStop                                           ./build/obj/hal_serial_usb.o (symbol from plugin)
sduSuspendHookI                                   ./build/obj/hal_serial_usb.o (symbol from plugin)
                                                  ./build/obj/usbcfg.o (symbol from plugin)
sduWakeupHookI                                    ./build/obj/hal_serial_usb.o (symbol from plugin)
                                                  ./build/obj/usbcfg.o (symbol from plugin)
serusbcfg                                         ./build/obj/usbcfg.o (symbol from plugin)
                                                  ./build/obj/main.o (symbol from plugin)
setlocale                                         c:/chibistudio/tools/gnu tools arm embedded/10.3 2021.07/bin/../lib/gcc/arm-none-eabi/10.3.1/../../../../arm-none-eabi/lib/thumb/v7e-m/nofp\libg.a(lib_a-locale.o)
shell.c.4f69489a                                  C:\Users\zerog\AppData\Local\Temp\ccM4C1By.debug.temp.o
                                                  C:\Users\zerog\AppData\Local\Temp\APS_DIGITAL_CGG.elf.PLIgTd.ltrans0.ltrans.o
shellExit                                         ./build/obj/shell.o (symbol from plugin)
shellGetLine                                      ./build/obj/shell.o (symbol from plugin)
                                                  ./build/obj/digital_driver.o (symbol from plugin)
shellInit                                         ./build/obj/shell.o (symbol from plugin)
                                                  ./build/obj/main.o (symbol from plugin)
shellThread                                       ./build/obj/shell.o (symbol from plugin)
                                                  ./build/obj/main.o (symbol from plugin)
shell_cfg1                                        ./build/obj/main.o (symbol from plugin)
shell_cfg2                                        ./build/obj/main.o (symbol from plugin)
shell_cmd.c.baa229aa                              C:\Users\zerog\AppData\Local\Temp\ccSvdKiB.debug.temp.o
                                                  C:\Users\zerog\AppData\Local\Temp\APS_DIGITAL_CGG.elf.PLIgTd.ltrans0.ltrans.o
shell_local_commands                              ./build/obj/shell_cmd.o (symbol from plugin)
                                                  ./build/obj/shell.o (symbol from plugin)
shell_terminated                                  ./build/obj/shell.o (symbol from plugin)
signal                                            c:/chibistudio/tools/gnu tools arm embedded/10.3 2021.07/bin/../lib/gcc/arm-none-eabi/10.3.1/../../../../arm-none-eabi/lib/thumb/v7e-m/nofp\libg.a(lib_a-signal.o)
sioAsyncRead                                      ./build/obj/hal_sio.o (symbol from plugin)
sioAsyncWrite                                     ./build/obj/hal_sio.o (symbol from plugin)
sioClearEnableFlags                               ./build/obj/hal_sio.o (symbol from plugin)
sioGetAndClearErrors                              ./build/obj/hal_sio.o (symbol from plugin)
sioGetAndClearEvents                              ./build/obj/hal_sio.o (symbol from plugin)
sioGetEvents                                      ./build/obj/hal_sio.o (symbol from plugin)
sioInit                                           ./build/obj/hal_sio.o (symbol from plugin)
                                                  ./build/obj/hal.o (symbol from plugin)
sioObjectInit                                     ./build/obj/hal_sio.o (symbol from plugin)
                                                  ./build/obj/hal_sio_lld.o (symbol from plugin)
sioSetEnableFlags                                 ./build/obj/hal_sio.o (symbol from plugin)
sioStart                                          ./build/obj/hal_sio.o (symbol from plugin)
                                                  ./build/obj/main.o (symbol from plugin)
sioStop                                           ./build/obj/hal_sio.o (symbol from plugin)
sioSynchronizeRX                                  ./build/obj/hal_sio.o (symbol from plugin)
sioSynchronizeRXIdle                              ./build/obj/hal_sio.o (symbol from plugin)
sioSynchronizeTX                                  ./build/obj/hal_sio.o (symbol from plugin)
sioSynchronizeTXEnd                               ./build/obj/hal_sio.o (symbol from plugin)
sioWriteEnableFlags                               ./build/obj/hal_sio.o (symbol from plugin)
sio_lld_control                                   ./build/obj/hal_sio_lld.o (symbol from plugin)
                                                  ./build/obj/hal_sio.o (symbol from plugin)
sio_lld_get                                       ./build/obj/hal_sio_lld.o (symbol from plugin)
                                                  ./build/obj/hal_sio.o (symbol from plugin)
sio_lld_get_and_clear_errors                      ./build/obj/hal_sio_lld.o (symbol from plugin)
                                                  ./build/obj/hal_sio.o (symbol from plugin)
sio_lld_get_and_clear_events                      ./build/obj/hal_sio_lld.o (symbol from plugin)
                                                  ./build/obj/hal_sio.o (symbol from plugin)
sio_lld_get_events                                ./build/obj/hal_sio_lld.o (symbol from plugin)
                                                  ./build/obj/hal_sio.o (symbol from plugin)
sio_lld_init                                      ./build/obj/hal_sio_lld.o (symbol from plugin)
                                                  ./build/obj/hal_sio.o (symbol from plugin)
sio_lld_put                                       ./build/obj/hal_sio_lld.o (symbol from plugin)
                                                  ./build/obj/hal_sio.o (symbol from plugin)
sio_lld_read                                      ./build/obj/hal_sio_lld.o (symbol from plugin)
                                                  ./build/obj/hal_sio.o (symbol from plugin)
sio_lld_serve_interrupt                           ./build/obj/hal_sio_lld.o (symbol from plugin)
                                                  ./build/obj/stm32_isr.o (symbol from plugin)
sio_lld_start                                     ./build/obj/hal_sio_lld.o (symbol from plugin)
                                                  ./build/obj/hal_sio.o (symbol from plugin)
sio_lld_stop                                      ./build/obj/hal_sio_lld.o (symbol from plugin)
                                                  ./build/obj/hal_sio.o (symbol from plugin)
sio_lld_update_enable_flags                       ./build/obj/hal_sio_lld.o (symbol from plugin)
                                                  ./build/obj/hal_sio.o (symbol from plugin)
sio_lld_write                                     ./build/obj/hal_sio_lld.o (symbol from plugin)
                                                  ./build/obj/hal_sio.o (symbol from plugin)
spiAcquireBus                                     ./build/obj/hal_spi.o (symbol from plugin)
spiExchange                                       ./build/obj/hal_spi.o (symbol from plugin)
spiIgnore                                         ./build/obj/hal_spi.o (symbol from plugin)
spiInit                                           ./build/obj/hal_spi.o (symbol from plugin)
                                                  ./build/obj/hal.o (symbol from plugin)
spiObjectInit                                     ./build/obj/hal_spi.o (symbol from plugin)
                                                  ./build/obj/hal_spi_v2_lld.o (symbol from plugin)
spiReceive                                        ./build/obj/hal_spi.o (symbol from plugin)
                                                  ./build/obj/AD8460.o (symbol from plugin)
spiReleaseBus                                     ./build/obj/hal_spi.o (symbol from plugin)
spiSelect                                         ./build/obj/hal_spi.o (symbol from plugin)
                                                  ./build/obj/AD8460.o (symbol from plugin)
spiSend                                           ./build/obj/hal_spi.o (symbol from plugin)
                                                  ./build/obj/AD8460.o (symbol from plugin)
spiStart                                          ./build/obj/hal_spi.o (symbol from plugin)
                                                  ./build/obj/AD8460.o (symbol from plugin)
spiStartExchange                                  ./build/obj/hal_spi.o (symbol from plugin)
spiStartExchangeI                                 ./build/obj/hal_spi.o (symbol from plugin)
spiStartIgnore                                    ./build/obj/hal_spi.o (symbol from plugin)
spiStartIgnoreI                                   ./build/obj/hal_spi.o (symbol from plugin)
spiStartReceive                                   ./build/obj/hal_spi.o (symbol from plugin)
spiStartReceiveI                                  ./build/obj/hal_spi.o (symbol from plugin)
spiStartSend                                      ./build/obj/hal_spi.o (symbol from plugin)
spiStartSendI                                     ./build/obj/hal_spi.o (symbol from plugin)
spiStop                                           ./build/obj/hal_spi.o (symbol from plugin)
spiStopTransfer                                   ./build/obj/hal_spi.o (symbol from plugin)
spiStopTransferI                                  ./build/obj/hal_spi.o (symbol from plugin)
spiSynchronize                                    ./build/obj/hal_spi.o (symbol from plugin)
spiSynchronizeS                                   ./build/obj/hal_spi.o (symbol from plugin)
spiUnselect                                       ./build/obj/hal_spi.o (symbol from plugin)
                                                  ./build/obj/AD8460.o (symbol from plugin)
spi_lld_exchange                                  ./build/obj/hal_spi_v2_lld.o (symbol from plugin)
                                                  ./build/obj/hal_spi.o (symbol from plugin)
spi_lld_ignore                                    ./build/obj/hal_spi_v2_lld.o (symbol from plugin)
                                                  ./build/obj/hal_spi.o (symbol from plugin)
spi_lld_init                                      ./build/obj/hal_spi_v2_lld.o (symbol from plugin)
                                                  ./build/obj/hal_spi.o (symbol from plugin)
spi_lld_polled_exchange                           ./build/obj/hal_spi_v2_lld.o (symbol from plugin)
spi_lld_receive                                   ./build/obj/hal_spi_v2_lld.o (symbol from plugin)
                                                  ./build/obj/hal_spi.o (symbol from plugin)
spi_lld_send                                      ./build/obj/hal_spi_v2_lld.o (symbol from plugin)
                                                  ./build/obj/hal_spi.o (symbol from plugin)
spi_lld_start                                     ./build/obj/hal_spi_v2_lld.o (symbol from plugin)
                                                  ./build/obj/hal_spi.o (symbol from plugin)
spi_lld_stop                                      ./build/obj/hal_spi_v2_lld.o (symbol from plugin)
                                                  ./build/obj/hal_spi.o (symbol from plugin)
spi_lld_stop_transfer                             ./build/obj/hal_spi_v2_lld.o (symbol from plugin)
                                                  ./build/obj/hal_spi.o (symbol from plugin)
stGetAlarm                                        ./build/obj/hal_st.o (symbol from plugin)
stGetCounter                                      ./build/obj/hal_st.o (symbol from plugin)
                                                  ./build/obj/shell_cmd.o (symbol from plugin)
                                                  ./build/obj/chthreads.o (symbol from plugin)
                                                  ./build/obj/chinstances.o (symbol from plugin)
                                                  ./build/obj/chvt.o (symbol from plugin)
stInit                                            ./build/obj/hal_st.o (symbol from plugin)
                                                  ./build/obj/hal.o (symbol from plugin)
stIsAlarmActive                                   ./build/obj/hal_st.o (symbol from plugin)
stSetAlarm                                        ./build/obj/hal_st.o (symbol from plugin)
                                                  ./build/obj/chvt.o (symbol from plugin)
stStartAlarm                                      ./build/obj/hal_st.o (symbol from plugin)
                                                  ./build/obj/chvt.o (symbol from plugin)
stStopAlarm                                       ./build/obj/hal_st.o (symbol from plugin)
                                                  ./build/obj/chvt.o (symbol from plugin)
st_lld_init                                       ./build/obj/hal_st_lld.o (symbol from plugin)
                                                  ./build/obj/hal_st.o (symbol from plugin)
st_lld_serve_interrupt                            ./build/obj/hal_st_lld.o (symbol from plugin)
                                                  ./build/obj/stm32_isr.o (symbol from plugin)
stm32_clock_init                                  ./build/obj/hal_lld.o (symbol from plugin)
                                                  ./build/obj/board.o (symbol from plugin)
stm32_dma.c.8ce53084                              C:\Users\zerog\AppData\Local\Temp\ccEWeiyz.debug.temp.o
                                                  C:\Users\zerog\AppData\Local\Temp\APS_DIGITAL_CGG.elf.PLIgTd.ltrans0.ltrans.o
stm32_exti.c.6abb4a4d                             C:\Users\zerog\AppData\Local\Temp\cciPws9C.debug.temp.o
stm32_isr.c.ae1c9d29                              C:\Users\zerog\AppData\Local\Temp\ccYKraYo.debug.temp.o
                                                  C:\Users\zerog\AppData\Local\Temp\APS_DIGITAL_CGG.elf.PLIgTd.ltrans0.ltrans.o
stop_test                                         ./build/obj/main.o (symbol from plugin)
strcasecmp                                        c:/chibistudio/tools/gnu tools arm embedded/10.3 2021.07/bin/../lib/gcc/arm-none-eabi/10.3.1/../../../../arm-none-eabi/lib/thumb/v7e-m/nofp\libg.a(lib_a-strcasecmp.o)
                                                  C:\Users\zerog\AppData\Local\Temp\APS_DIGITAL_CGG.elf.PLIgTd.ltrans0.ltrans.o
strchr                                            c:/chibistudio/tools/gnu tools arm embedded/10.3 2021.07/bin/../lib/gcc/arm-none-eabi/10.3.1/../../../../arm-none-eabi/lib/thumb/v7e-m/nofp\libg.a(lib_a-strchr.o)
                                                  C:\Users\zerog\AppData\Local\Temp\APS_DIGITAL_CGG.elf.PLIgTd.ltrans0.ltrans.o
strcmp                                            c:/chibistudio/tools/gnu tools arm embedded/10.3 2021.07/bin/../lib/gcc/arm-none-eabi/10.3.1/../../../../arm-none-eabi/lib/thumb/v7e-m/nofp\libg.a(lib_a-strcmp.o)
                                                  C:\Users\zerog\AppData\Local\Temp\APS_DIGITAL_CGG.elf.PLIgTd.ltrans0.ltrans.o
                                                  c:/chibistudio/tools/gnu tools arm embedded/10.3 2021.07/bin/../lib/gcc/arm-none-eabi/10.3.1/../../../../arm-none-eabi/lib/thumb/v7e-m/nofp\libg.a(lib_a-locale.o)
strlen                                            c:/chibistudio/tools/gnu tools arm embedded/10.3 2021.07/bin/../lib/gcc/arm-none-eabi/10.3.1/../../../../arm-none-eabi/lib/thumb/v7e-m/nofp\libg.a(lib_a-strlen.o)
                                                  C:\Users\zerog\AppData\Local\Temp\APS_DIGITAL_CGG.elf.PLIgTd.ltrans0.ltrans.o
                                                  c:/chibistudio/tools/gnu tools arm embedded/10.3 2021.07/bin/../lib/gcc/arm-none-eabi/10.3.1/../../../../arm-none-eabi/lib/thumb/v7e-m/nofp\libg.a(lib_a-vfiprintf.o)
                                                  c:/chibistudio/tools/gnu tools arm embedded/10.3 2021.07/bin/../lib/gcc/arm-none-eabi/10.3.1/../../../../arm-none-eabi/lib/thumb/v7e-m/nofp\libg.a(lib_a-gdtoa-gethex.o)
                                                  c:/chibistudio/tools/gnu tools arm embedded/10.3 2021.07/bin/../lib/gcc/arm-none-eabi/10.3.1/../../../../arm-none-eabi/lib/thumb/v7e-m/nofp\libg.a(lib_a-strtod.o)
strncmp                                           c:/chibistudio/tools/gnu tools arm embedded/10.3 2021.07/bin/../lib/gcc/arm-none-eabi/10.3.1/../../../../arm-none-eabi/lib/thumb/v7e-m/nofp\libg.a(lib_a-strncmp.o)
                                                  c:/chibistudio/tools/gnu tools arm embedded/10.3 2021.07/bin/../lib/gcc/arm-none-eabi/10.3.1/../../../../arm-none-eabi/lib/thumb/v7e-m/nofp\libg.a(lib_a-gdtoa-gethex.o)
                                                  c:/chibistudio/tools/gnu tools arm embedded/10.3 2021.07/bin/../lib/gcc/arm-none-eabi/10.3.1/../../../../arm-none-eabi/lib/thumb/v7e-m/nofp\libg.a(lib_a-strtod.o)
strncpy                                           c:/chibistudio/tools/gnu tools arm embedded/10.3 2021.07/bin/../lib/gcc/arm-none-eabi/10.3.1/../../../../arm-none-eabi/lib/thumb/v7e-m/nofp\libg.a(lib_a-strncpy.o)
                                                  c:/chibistudio/tools/gnu tools arm embedded/10.3 2021.07/bin/../lib/gcc/arm-none-eabi/10.3.1/../../../../arm-none-eabi/lib/thumb/v7e-m/nofp\libg.a(lib_a-vfiprintf.o)
strpbrk                                           c:/chibistudio/tools/gnu tools arm embedded/10.3 2021.07/bin/../lib/gcc/arm-none-eabi/10.3.1/../../../../arm-none-eabi/lib/thumb/v7e-m/nofp\libg.a(lib_a-strpbrk.o)
                                                  C:\Users\zerog\AppData\Local\Temp\APS_DIGITAL_CGG.elf.PLIgTd.ltrans0.ltrans.o
strspn                                            c:/chibistudio/tools/gnu tools arm embedded/10.3 2021.07/bin/../lib/gcc/arm-none-eabi/10.3.1/../../../../arm-none-eabi/lib/thumb/v7e-m/nofp\libg.a(lib_a-strspn.o)
                                                  C:\Users\zerog\AppData\Local\Temp\APS_DIGITAL_CGG.elf.PLIgTd.ltrans0.ltrans.o
strtod                                            c:/chibistudio/tools/gnu tools arm embedded/10.3 2021.07/bin/../lib/gcc/arm-none-eabi/10.3.1/../../../../arm-none-eabi/lib/thumb/v7e-m/nofp\libg.a(lib_a-strtod.o)
strtod_l                                          c:/chibistudio/tools/gnu tools arm embedded/10.3 2021.07/bin/../lib/gcc/arm-none-eabi/10.3.1/../../../../arm-none-eabi/lib/thumb/v7e-m/nofp\libg.a(lib_a-strtod.o)
strtof                                            c:/chibistudio/tools/gnu tools arm embedded/10.3 2021.07/bin/../lib/gcc/arm-none-eabi/10.3.1/../../../../arm-none-eabi/lib/thumb/v7e-m/nofp\libg.a(lib_a-strtod.o)
                                                  C:\Users\zerog\AppData\Local\Temp\APS_DIGITAL_CGG.elf.PLIgTd.ltrans0.ltrans.o
                                                  ./build/obj/digital_driver.o (symbol from plugin)
strtof_l                                          c:/chibistudio/tools/gnu tools arm embedded/10.3 2021.07/bin/../lib/gcc/arm-none-eabi/10.3.1/../../../../arm-none-eabi/lib/thumb/v7e-m/nofp\libg.a(lib_a-strtod.o)
syscalls.c.860b1368                               C:\Users\zerog\AppData\Local\Temp\ccYWNsZD.debug.temp.o
                                                  C:\Users\zerog\AppData\Local\Temp\APS_DIGITAL_CGG.elf.PLIgTd.ltrans0.ltrans.o
usbDisableEndpointsI                              ./build/obj/hal_usb.o (symbol from plugin)
usbInit                                           ./build/obj/hal_usb.o (symbol from plugin)
                                                  ./build/obj/hal.o (symbol from plugin)
usbInitEndpointI                                  ./build/obj/hal_usb.o (symbol from plugin)
                                                  ./build/obj/usbcfg.o (symbol from plugin)
usbObjectInit                                     ./build/obj/hal_usb.o (symbol from plugin)
                                                  ./build/obj/hal_usb_lld.o (symbol from plugin)
usbStallReceiveI                                  ./build/obj/hal_usb.o (symbol from plugin)
usbStallTransmitI                                 ./build/obj/hal_usb.o (symbol from plugin)
usbStart                                          ./build/obj/hal_usb.o (symbol from plugin)
                                                  ./build/obj/main.o (symbol from plugin)
usbStartReceiveI                                  ./build/obj/hal_usb.o (symbol from plugin)
                                                  ./build/obj/hal_serial_usb.o (symbol from plugin)
usbStartTransmitI                                 ./build/obj/hal_usb.o (symbol from plugin)
                                                  ./build/obj/hal_serial_usb.o (symbol from plugin)
usbStop                                           ./build/obj/hal_usb.o (symbol from plugin)
usbWakeupHost                                     ./build/obj/hal_usb.o (symbol from plugin)
usb_lld_clear_in                                  ./build/obj/hal_usb_lld.o (symbol from plugin)
                                                  ./build/obj/hal_usb.o (symbol from plugin)
usb_lld_clear_out                                 ./build/obj/hal_usb_lld.o (symbol from plugin)
                                                  ./build/obj/hal_usb.o (symbol from plugin)
usb_lld_disable_endpoints                         ./build/obj/hal_usb_lld.o (symbol from plugin)
                                                  ./build/obj/hal_usb.o (symbol from plugin)
usb_lld_get_status_in                             ./build/obj/hal_usb_lld.o (symbol from plugin)
                                                  ./build/obj/hal_usb.o (symbol from plugin)
usb_lld_get_status_out                            ./build/obj/hal_usb_lld.o (symbol from plugin)
                                                  ./build/obj/hal_usb.o (symbol from plugin)
usb_lld_init                                      ./build/obj/hal_usb_lld.o (symbol from plugin)
                                                  ./build/obj/hal_usb.o (symbol from plugin)
usb_lld_init_endpoint                             ./build/obj/hal_usb_lld.o (symbol from plugin)
                                                  ./build/obj/hal_usb.o (symbol from plugin)
usb_lld_read_setup                                ./build/obj/hal_usb_lld.o (symbol from plugin)
                                                  ./build/obj/hal_usb.o (symbol from plugin)
usb_lld_reset                                     ./build/obj/hal_usb_lld.o (symbol from plugin)
                                                  ./build/obj/hal_usb.o (symbol from plugin)
usb_lld_set_address                               ./build/obj/hal_usb_lld.o (symbol from plugin)
                                                  ./build/obj/hal_usb.o (symbol from plugin)
usb_lld_stall_in                                  ./build/obj/hal_usb_lld.o (symbol from plugin)
                                                  ./build/obj/hal_usb.o (symbol from plugin)
usb_lld_stall_out                                 ./build/obj/hal_usb_lld.o (symbol from plugin)
                                                  ./build/obj/hal_usb.o (symbol from plugin)
usb_lld_start                                     ./build/obj/hal_usb_lld.o (symbol from plugin)
                                                  ./build/obj/hal_usb.o (symbol from plugin)
usb_lld_start_in                                  ./build/obj/hal_usb_lld.o (symbol from plugin)
                                                  ./build/obj/hal_usb.o (symbol from plugin)
usb_lld_start_out                                 ./build/obj/hal_usb_lld.o (symbol from plugin)
                                                  ./build/obj/hal_usb.o (symbol from plugin)
usb_lld_stop                                      ./build/obj/hal_usb_lld.o (symbol from plugin)
                                                  ./build/obj/hal_usb.o (symbol from plugin)
usbcfg                                            ./build/obj/usbcfg.o (symbol from plugin)
                                                  ./build/obj/main.o (symbol from plugin)
usbcfg.c.35b45a3d                                 C:\Users\zerog\AppData\Local\Temp\cc4nobGG.debug.temp.o
                                                  C:\Users\zerog\AppData\Local\Temp\APS_DIGITAL_CGG.elf.PLIgTd.ltrans0.ltrans.o
vfiprintf                                         c:/chibistudio/tools/gnu tools arm embedded/10.3 2021.07/bin/../lib/gcc/arm-none-eabi/10.3.1/../../../../arm-none-eabi/lib/thumb/v7e-m/nofp\libg.a(lib_a-vfiprintf.o)
wcrtomb                                           c:/chibistudio/tools/gnu tools arm embedded/10.3 2021.07/bin/../lib/gcc/arm-none-eabi/10.3.1/../../../../arm-none-eabi/lib/thumb/v7e-m/nofp\libg.a(lib_a-wcrtomb.o)
